ARM GAS  C:\Users\Samay\AppData\Local\Temp\cc68IsdU.s 			page 1


   1              		.cpu cortex-m0
   2              		.fpu softvfp
   3              		.eabi_attribute 20, 1
   4              		.eabi_attribute 21, 1
   5              		.eabi_attribute 23, 3
   6              		.eabi_attribute 24, 1
   7              		.eabi_attribute 25, 1
   8              		.eabi_attribute 26, 1
   9              		.eabi_attribute 30, 6
  10              		.eabi_attribute 34, 0
  11              		.eabi_attribute 18, 4
  12              		.code	16
  13              		.file	"BLE_HAL_PVT.c"
  14              		.text
  15              	.Ltext0:
  16              		.cfi_sections	.debug_frame
  17              		.section	.text.CyBLE_Nvram_Write,"ax",%progbits
  18              		.align	2
  19              		.global	CyBLE_Nvram_Write
  20              		.code	16
  21              		.thumb_func
  22              		.type	CyBLE_Nvram_Write, %function
  23              	CyBLE_Nvram_Write:
  24              	.LFB2:
  25              		.file 1 "Generated_Source\\PSoC4\\BLE_HAL_PVT.c"
   1:Generated_Source\PSoC4/BLE_HAL_PVT.c **** /***************************************************************************//**
   2:Generated_Source\PSoC4/BLE_HAL_PVT.c **** * \file CYBLE_HAL_PVT.c
   3:Generated_Source\PSoC4/BLE_HAL_PVT.c **** * \version 3.30
   4:Generated_Source\PSoC4/BLE_HAL_PVT.c **** *
   5:Generated_Source\PSoC4/BLE_HAL_PVT.c **** * \brief
   6:Generated_Source\PSoC4/BLE_HAL_PVT.c **** *  This file contains the source code for the HAL section of the BLE component
   7:Generated_Source\PSoC4/BLE_HAL_PVT.c **** *
   8:Generated_Source\PSoC4/BLE_HAL_PVT.c **** ********************************************************************************
   9:Generated_Source\PSoC4/BLE_HAL_PVT.c **** * \copyright
  10:Generated_Source\PSoC4/BLE_HAL_PVT.c **** * Copyright 2014-2016, Cypress Semiconductor Corporation.  All rights reserved.
  11:Generated_Source\PSoC4/BLE_HAL_PVT.c **** * You may use this file only in accordance with the license, terms, conditions,
  12:Generated_Source\PSoC4/BLE_HAL_PVT.c **** * disclaimers, and limitations in the end user license agreement accompanying
  13:Generated_Source\PSoC4/BLE_HAL_PVT.c **** * the software package with which this file was provided.
  14:Generated_Source\PSoC4/BLE_HAL_PVT.c **** *******************************************************************************/
  15:Generated_Source\PSoC4/BLE_HAL_PVT.c **** 
  16:Generated_Source\PSoC4/BLE_HAL_PVT.c **** #include "BLE_HAL_PVT.h"
  17:Generated_Source\PSoC4/BLE_HAL_PVT.c **** 
  18:Generated_Source\PSoC4/BLE_HAL_PVT.c **** 
  19:Generated_Source\PSoC4/BLE_HAL_PVT.c **** #if(CYBLE_MODE == CYBLE_HCI)
  20:Generated_Source\PSoC4/BLE_HAL_PVT.c **** 
  21:Generated_Source\PSoC4/BLE_HAL_PVT.c **** 
  22:Generated_Source\PSoC4/BLE_HAL_PVT.c **** /*******************************************************************************
  23:Generated_Source\PSoC4/BLE_HAL_PVT.c **** * Function Name: CyBLE_Uart_Start
  24:Generated_Source\PSoC4/BLE_HAL_PVT.c **** ****************************************************************************//**
  25:Generated_Source\PSoC4/BLE_HAL_PVT.c **** *
  26:Generated_Source\PSoC4/BLE_HAL_PVT.c **** *  Enables the platform UART Tx and RX interrupts and then enables the UART
  27:Generated_Source\PSoC4/BLE_HAL_PVT.c **** *  component.
  28:Generated_Source\PSoC4/BLE_HAL_PVT.c **** *
  29:Generated_Source\PSoC4/BLE_HAL_PVT.c **** * \return
  30:Generated_Source\PSoC4/BLE_HAL_PVT.c **** *  None
  31:Generated_Source\PSoC4/BLE_HAL_PVT.c **** *
  32:Generated_Source\PSoC4/BLE_HAL_PVT.c **** *******************************************************************************/
ARM GAS  C:\Users\Samay\AppData\Local\Temp\cc68IsdU.s 			page 2


  33:Generated_Source\PSoC4/BLE_HAL_PVT.c **** void CyBLE_Uart_Start (void)
  34:Generated_Source\PSoC4/BLE_HAL_PVT.c **** {
  35:Generated_Source\PSoC4/BLE_HAL_PVT.c ****     #if (CYBLE_HCI_TYPE == CYBLE_HCI_OVER_UART)
  36:Generated_Source\PSoC4/BLE_HAL_PVT.c ****         /* Setup ISR */
  37:Generated_Source\PSoC4/BLE_HAL_PVT.c ****         BLE_uart_isr_StartEx(&CyBLE_Uart_Interrupt);
  38:Generated_Source\PSoC4/BLE_HAL_PVT.c **** 
  39:Generated_Source\PSoC4/BLE_HAL_PVT.c ****         BLE_HAL_Uart_Start();
  40:Generated_Source\PSoC4/BLE_HAL_PVT.c ****     #endif /* (CYBLE_HCI_TYPE == CYBLE_HCI_OVER_UART) */
  41:Generated_Source\PSoC4/BLE_HAL_PVT.c **** }
  42:Generated_Source\PSoC4/BLE_HAL_PVT.c **** 
  43:Generated_Source\PSoC4/BLE_HAL_PVT.c **** 
  44:Generated_Source\PSoC4/BLE_HAL_PVT.c **** /*******************************************************************************
  45:Generated_Source\PSoC4/BLE_HAL_PVT.c **** * Function Name: CyBLE_Uart_Stop
  46:Generated_Source\PSoC4/BLE_HAL_PVT.c **** ****************************************************************************//**
  47:Generated_Source\PSoC4/BLE_HAL_PVT.c **** *
  48:Generated_Source\PSoC4/BLE_HAL_PVT.c **** *  Disables the UART, clears all pending interrupts and disables the UART Tx
  49:Generated_Source\PSoC4/BLE_HAL_PVT.c **** *  and RX interrupts. This will also empty out the FIFOs.
  50:Generated_Source\PSoC4/BLE_HAL_PVT.c **** *
  51:Generated_Source\PSoC4/BLE_HAL_PVT.c **** * \return
  52:Generated_Source\PSoC4/BLE_HAL_PVT.c **** *  None
  53:Generated_Source\PSoC4/BLE_HAL_PVT.c **** *
  54:Generated_Source\PSoC4/BLE_HAL_PVT.c **** *******************************************************************************/
  55:Generated_Source\PSoC4/BLE_HAL_PVT.c **** void CyBLE_Uart_Stop (void)
  56:Generated_Source\PSoC4/BLE_HAL_PVT.c **** {
  57:Generated_Source\PSoC4/BLE_HAL_PVT.c ****     #if (CYBLE_HCI_TYPE == CYBLE_HCI_OVER_UART)
  58:Generated_Source\PSoC4/BLE_HAL_PVT.c ****         /* Stop interrupt and UART */
  59:Generated_Source\PSoC4/BLE_HAL_PVT.c ****         BLE_uart_isr_Stop();
  60:Generated_Source\PSoC4/BLE_HAL_PVT.c **** 
  61:Generated_Source\PSoC4/BLE_HAL_PVT.c ****         BLE_HAL_Uart_Stop();
  62:Generated_Source\PSoC4/BLE_HAL_PVT.c ****     #endif /* (CYBLE_HCI_TYPE == CYBLE_HCI_OVER_UART) */
  63:Generated_Source\PSoC4/BLE_HAL_PVT.c **** }
  64:Generated_Source\PSoC4/BLE_HAL_PVT.c **** 
  65:Generated_Source\PSoC4/BLE_HAL_PVT.c **** 
  66:Generated_Source\PSoC4/BLE_HAL_PVT.c **** /*******************************************************************************
  67:Generated_Source\PSoC4/BLE_HAL_PVT.c **** * Function Name: CyBLE_Uart_Transmit
  68:Generated_Source\PSoC4/BLE_HAL_PVT.c **** ****************************************************************************//**
  69:Generated_Source\PSoC4/BLE_HAL_PVT.c **** *
  70:Generated_Source\PSoC4/BLE_HAL_PVT.c **** *  Sends the data to Uart Tx FIFO. The API handles data length up to the 
  71:Generated_Source\PSoC4/BLE_HAL_PVT.c **** *  supported Tx FIFO length of the uart hardware module.
  72:Generated_Source\PSoC4/BLE_HAL_PVT.c **** *
  73:Generated_Source\PSoC4/BLE_HAL_PVT.c **** *  \param data: Pointer to the data to send through the UART
  74:Generated_Source\PSoC4/BLE_HAL_PVT.c **** *  \param length: the length of data to transmit in bytes
  75:Generated_Source\PSoC4/BLE_HAL_PVT.c **** *
  76:Generated_Source\PSoC4/BLE_HAL_PVT.c **** * \return
  77:Generated_Source\PSoC4/BLE_HAL_PVT.c **** *  None
  78:Generated_Source\PSoC4/BLE_HAL_PVT.c **** *
  79:Generated_Source\PSoC4/BLE_HAL_PVT.c **** *******************************************************************************/
  80:Generated_Source\PSoC4/BLE_HAL_PVT.c **** void CyBLE_Uart_Transmit (const uint8 *dataBuf, uint8 length)
  81:Generated_Source\PSoC4/BLE_HAL_PVT.c **** {
  82:Generated_Source\PSoC4/BLE_HAL_PVT.c ****     #if (CYBLE_HCI_TYPE == CYBLE_HCI_OVER_UART)
  83:Generated_Source\PSoC4/BLE_HAL_PVT.c ****         BLE_HAL_Uart_SpiUartPutArray(dataBuf, (uint32)length);
  84:Generated_Source\PSoC4/BLE_HAL_PVT.c ****     #endif /* (CYBLE_HCI_TYPE == CYBLE_HCI_OVER_UART) */
  85:Generated_Source\PSoC4/BLE_HAL_PVT.c **** }
  86:Generated_Source\PSoC4/BLE_HAL_PVT.c **** 
  87:Generated_Source\PSoC4/BLE_HAL_PVT.c **** /*******************************************************************************
  88:Generated_Source\PSoC4/BLE_HAL_PVT.c **** * Function Name: CyBLE_Uart_Isr_Enable
  89:Generated_Source\PSoC4/BLE_HAL_PVT.c **** ****************************************************************************//**
ARM GAS  C:\Users\Samay\AppData\Local\Temp\cc68IsdU.s 			page 3


  90:Generated_Source\PSoC4/BLE_HAL_PVT.c **** *
  91:Generated_Source\PSoC4/BLE_HAL_PVT.c **** *   Enables the UART interrupt to the interrupt controller. 
  92:Generated_Source\PSoC4/BLE_HAL_PVT.c **** *   Do not call this function unless CyBLE_Uart_Start() has been called or the
  93:Generated_Source\PSoC4/BLE_HAL_PVT.c **** *   functionality of the SysInt_Init() function, which sets the vector and the
  94:Generated_Source\PSoC4/BLE_HAL_PVT.c **** *   priority, has been called.
  95:Generated_Source\PSoC4/BLE_HAL_PVT.c **** *
  96:Generated_Source\PSoC4/BLE_HAL_PVT.c **** *******************************************************************************/
  97:Generated_Source\PSoC4/BLE_HAL_PVT.c **** void CyBLE_Uart_Isr_Enable(void)
  98:Generated_Source\PSoC4/BLE_HAL_PVT.c **** {
  99:Generated_Source\PSoC4/BLE_HAL_PVT.c ****     #if (CYBLE_HCI_TYPE == CYBLE_HCI_OVER_UART)
 100:Generated_Source\PSoC4/BLE_HAL_PVT.c ****         BLE_uart_isr_Enable();
 101:Generated_Source\PSoC4/BLE_HAL_PVT.c ****     #endif /* (CYBLE_HCI_TYPE == CYBLE_HCI_OVER_UART) */
 102:Generated_Source\PSoC4/BLE_HAL_PVT.c **** }
 103:Generated_Source\PSoC4/BLE_HAL_PVT.c **** 
 104:Generated_Source\PSoC4/BLE_HAL_PVT.c **** 
 105:Generated_Source\PSoC4/BLE_HAL_PVT.c **** /*******************************************************************************
 106:Generated_Source\PSoC4/BLE_HAL_PVT.c **** * Function Name: CyBLE_Uart_Isr_Disable
 107:Generated_Source\PSoC4/BLE_HAL_PVT.c **** ****************************************************************************//**
 108:Generated_Source\PSoC4/BLE_HAL_PVT.c **** *
 109:Generated_Source\PSoC4/BLE_HAL_PVT.c **** *   Disables the UART Interrupt in the interrupt controller.
 110:Generated_Source\PSoC4/BLE_HAL_PVT.c **** *
 111:Generated_Source\PSoC4/BLE_HAL_PVT.c **** *******************************************************************************/
 112:Generated_Source\PSoC4/BLE_HAL_PVT.c **** void CyBLE_Uart_Isr_Disable(void)
 113:Generated_Source\PSoC4/BLE_HAL_PVT.c **** {
 114:Generated_Source\PSoC4/BLE_HAL_PVT.c ****     #if (CYBLE_HCI_TYPE == CYBLE_HCI_OVER_UART)
 115:Generated_Source\PSoC4/BLE_HAL_PVT.c ****         BLE_uart_isr_Disable();
 116:Generated_Source\PSoC4/BLE_HAL_PVT.c ****     #endif /* (CYBLE_HCI_TYPE == CYBLE_HCI_OVER_UART) */
 117:Generated_Source\PSoC4/BLE_HAL_PVT.c **** }
 118:Generated_Source\PSoC4/BLE_HAL_PVT.c **** 
 119:Generated_Source\PSoC4/BLE_HAL_PVT.c **** #endif /* (CYBLE_MODE == CYBLE_HCI) */
 120:Generated_Source\PSoC4/BLE_HAL_PVT.c **** 
 121:Generated_Source\PSoC4/BLE_HAL_PVT.c **** 
 122:Generated_Source\PSoC4/BLE_HAL_PVT.c **** /*******************************************************************************
 123:Generated_Source\PSoC4/BLE_HAL_PVT.c **** * Function Name: CyBLE_Nvram_Write
 124:Generated_Source\PSoC4/BLE_HAL_PVT.c **** ****************************************************************************//**
 125:Generated_Source\PSoC4/BLE_HAL_PVT.c **** *
 126:Generated_Source\PSoC4/BLE_HAL_PVT.c **** *  This API writes the data to the NVRAM store. It will check the appropriate
 127:Generated_Source\PSoC4/BLE_HAL_PVT.c **** *  alignment of a start address and also perform an address range check based
 128:Generated_Source\PSoC4/BLE_HAL_PVT.c **** *  on the length before performing the write operation.
 129:Generated_Source\PSoC4/BLE_HAL_PVT.c **** *  This function performs memory compare and writes only row where there are new
 130:Generated_Source\PSoC4/BLE_HAL_PVT.c **** *  data to write.
 131:Generated_Source\PSoC4/BLE_HAL_PVT.c **** *
 132:Generated_Source\PSoC4/BLE_HAL_PVT.c **** *  \param buffer:   Pointer to the buffer containing the data to be stored.
 133:Generated_Source\PSoC4/BLE_HAL_PVT.c **** *  \param varFlash: Pointer to the array or variable in the flash.
 134:Generated_Source\PSoC4/BLE_HAL_PVT.c **** *  \param length:    The length of the data in bytes.
 135:Generated_Source\PSoC4/BLE_HAL_PVT.c **** *
 136:Generated_Source\PSoC4/BLE_HAL_PVT.c **** * \return
 137:Generated_Source\PSoC4/BLE_HAL_PVT.c **** *  CYRET_SUCCESS    a successful write
 138:Generated_Source\PSoC4/BLE_HAL_PVT.c **** *  CYRET_BAD_PARAM  A request to write outside the flash boundary.
 139:Generated_Source\PSoC4/BLE_HAL_PVT.c **** *  CYRET_UNKNOWN    Other errors in writing the flash
 140:Generated_Source\PSoC4/BLE_HAL_PVT.c **** *
 141:Generated_Source\PSoC4/BLE_HAL_PVT.c **** * \sideeffect
 142:Generated_Source\PSoC4/BLE_HAL_PVT.c **** *  For BLE devices with 128K of Flash memory this API will automatically 
 143:Generated_Source\PSoC4/BLE_HAL_PVT.c **** *  modify the clock settings for the device.
 144:Generated_Source\PSoC4/BLE_HAL_PVT.c **** *  Writing to flash requires changes to be done to the IMO (set to 48 MHz)
 145:Generated_Source\PSoC4/BLE_HAL_PVT.c **** *  and HFCLK (source set to IMO) settings. The configuration is restored before
 146:Generated_Source\PSoC4/BLE_HAL_PVT.c **** *  returning. This will impact the operation of most of the hardware in the
ARM GAS  C:\Users\Samay\AppData\Local\Temp\cc68IsdU.s 			page 4


 147:Generated_Source\PSoC4/BLE_HAL_PVT.c **** *  device.
 148:Generated_Source\PSoC4/BLE_HAL_PVT.c **** *
 149:Generated_Source\PSoC4/BLE_HAL_PVT.c **** *******************************************************************************/
 150:Generated_Source\PSoC4/BLE_HAL_PVT.c **** cystatus CyBLE_Nvram_Write (const uint8 buffer[], const uint8 varFlash[], uint16 length)
 151:Generated_Source\PSoC4/BLE_HAL_PVT.c **** {
  26              		.loc 1 151 0
  27              		.cfi_startproc
  28 0000 80B5     		push	{r7, lr}
  29              		.cfi_def_cfa_offset 8
  30              		.cfi_offset 7, -8
  31              		.cfi_offset 14, -4
  32 0002 ACB0     		sub	sp, sp, #176
  33              		.cfi_def_cfa_offset 184
  34 0004 00AF     		add	r7, sp, #0
  35              		.cfi_def_cfa_register 7
  36 0006 F860     		str	r0, [r7, #12]
  37 0008 B960     		str	r1, [r7, #8]
  38 000a BB1D     		add	r3, r7, #6
  39 000c 1A80     		strh	r2, [r3]
 152:Generated_Source\PSoC4/BLE_HAL_PVT.c ****     uint8 writeBuffer[CY_FLASH_SIZEOF_ROW];
 153:Generated_Source\PSoC4/BLE_HAL_PVT.c ****     uint32 rowId;
 154:Generated_Source\PSoC4/BLE_HAL_PVT.c ****     uint32 dstIndex;
 155:Generated_Source\PSoC4/BLE_HAL_PVT.c ****     uint32 srcIndex = 0u;
  40              		.loc 1 155 0
  41 000e 0023     		mov	r3, #0
  42 0010 A422     		mov	r2, #164
  43 0012 BA18     		add	r2, r7, r2
  44 0014 1360     		str	r3, [r2]
 156:Generated_Source\PSoC4/BLE_HAL_PVT.c ****     cystatus rc = CYRET_SUCCESS;
  45              		.loc 1 156 0
  46 0016 0023     		mov	r3, #0
  47 0018 A022     		mov	r2, #160
  48 001a BA18     		add	r2, r7, r2
  49 001c 1360     		str	r3, [r2]
 157:Generated_Source\PSoC4/BLE_HAL_PVT.c ****     uint32 eeOffset;
 158:Generated_Source\PSoC4/BLE_HAL_PVT.c ****     uint32 byteOffset;
 159:Generated_Source\PSoC4/BLE_HAL_PVT.c ****     uint32 rowsNotEqual;
 160:Generated_Source\PSoC4/BLE_HAL_PVT.c **** 
 161:Generated_Source\PSoC4/BLE_HAL_PVT.c ****     eeOffset = (uint32)varFlash;
  50              		.loc 1 161 0
  51 001e BB68     		ldr	r3, [r7, #8]
  52 0020 9422     		mov	r2, #148
  53 0022 BA18     		add	r2, r7, r2
  54 0024 1360     		str	r3, [r2]
 162:Generated_Source\PSoC4/BLE_HAL_PVT.c **** 
 163:Generated_Source\PSoC4/BLE_HAL_PVT.c ****     /* Make sure, that varFlash[] points to Flash */
 164:Generated_Source\PSoC4/BLE_HAL_PVT.c ****     if ((eeOffset + length) < CYBLE_HAL_FLASH_END_ADDR)
  55              		.loc 1 164 0
  56 0026 BB1D     		add	r3, r7, #6
  57 0028 1A88     		ldrh	r2, [r3]
  58 002a 9423     		mov	r3, #148
  59 002c FB18     		add	r3, r7, r3
  60 002e 1B68     		ldr	r3, [r3]
  61 0030 D318     		add	r3, r2, r3
  62 0032 594A     		ldr	r2, .L14
  63 0034 9342     		cmp	r3, r2
  64 0036 00D9     		bls	.LCB36
ARM GAS  C:\Users\Samay\AppData\Local\Temp\cc68IsdU.s 			page 5


  65 0038 94E0     		b	.L2	@long jump
  66              	.LCB36:
 165:Generated_Source\PSoC4/BLE_HAL_PVT.c ****     {
 166:Generated_Source\PSoC4/BLE_HAL_PVT.c ****         rowId = eeOffset / CY_FLASH_SIZEOF_ROW;
  67              		.loc 1 166 0
  68 003a 9423     		mov	r3, #148
  69 003c FB18     		add	r3, r7, r3
  70 003e 1B68     		ldr	r3, [r3]
  71 0040 DB09     		lsr	r3, r3, #7
  72 0042 AC22     		mov	r2, #172
  73 0044 BA18     		add	r2, r7, r2
  74 0046 1360     		str	r3, [r2]
 167:Generated_Source\PSoC4/BLE_HAL_PVT.c ****         byteOffset = CY_FLASH_SIZEOF_ROW * rowId;
  75              		.loc 1 167 0
  76 0048 AC23     		mov	r3, #172
  77 004a FB18     		add	r3, r7, r3
  78 004c 1B68     		ldr	r3, [r3]
  79 004e DB01     		lsl	r3, r3, #7
  80 0050 9C22     		mov	r2, #156
  81 0052 BA18     		add	r2, r7, r2
  82 0054 1360     		str	r3, [r2]
 168:Generated_Source\PSoC4/BLE_HAL_PVT.c **** 
 169:Generated_Source\PSoC4/BLE_HAL_PVT.c ****         while ((srcIndex < length) && (rc == CYRET_SUCCESS))
  83              		.loc 1 169 0
  84 0056 77E0     		b	.L3
  85              	.L11:
 170:Generated_Source\PSoC4/BLE_HAL_PVT.c ****         {
 171:Generated_Source\PSoC4/BLE_HAL_PVT.c ****             rowsNotEqual = 0u;
  86              		.loc 1 171 0
  87 0058 0023     		mov	r3, #0
  88 005a 9822     		mov	r2, #152
  89 005c BA18     		add	r2, r7, r2
  90 005e 1360     		str	r3, [r2]
 172:Generated_Source\PSoC4/BLE_HAL_PVT.c ****             /* Copy data to the write buffer either from the source buffer or from the flash */
 173:Generated_Source\PSoC4/BLE_HAL_PVT.c ****             for (dstIndex = 0u; dstIndex < CY_FLASH_SIZEOF_ROW; dstIndex++)
  91              		.loc 1 173 0
  92 0060 0023     		mov	r3, #0
  93 0062 A822     		mov	r2, #168
  94 0064 BA18     		add	r2, r7, r2
  95 0066 1360     		str	r3, [r2]
  96 0068 50E0     		b	.L4
  97              	.L8:
 174:Generated_Source\PSoC4/BLE_HAL_PVT.c ****             {
 175:Generated_Source\PSoC4/BLE_HAL_PVT.c ****                 if ((byteOffset >= eeOffset) && (srcIndex < length))
  98              		.loc 1 175 0
  99 006a 9C23     		mov	r3, #156
 100 006c FB18     		add	r3, r7, r3
 101 006e 1A68     		ldr	r2, [r3]
 102 0070 9423     		mov	r3, #148
 103 0072 FB18     		add	r3, r7, r3
 104 0074 1B68     		ldr	r3, [r3]
 105 0076 9A42     		cmp	r2, r3
 106 0078 2DD3     		bcc	.L5
 107              		.loc 1 175 0 is_stmt 0 discriminator 1
 108 007a BB1D     		add	r3, r7, #6
 109 007c 1A88     		ldrh	r2, [r3]
 110 007e A423     		mov	r3, #164
ARM GAS  C:\Users\Samay\AppData\Local\Temp\cc68IsdU.s 			page 6


 111 0080 FB18     		add	r3, r7, r3
 112 0082 1B68     		ldr	r3, [r3]
 113 0084 9A42     		cmp	r2, r3
 114 0086 26D9     		bls	.L5
 176:Generated_Source\PSoC4/BLE_HAL_PVT.c ****                 {
 177:Generated_Source\PSoC4/BLE_HAL_PVT.c ****                     writeBuffer[dstIndex] = buffer[srcIndex];
 115              		.loc 1 177 0 is_stmt 1
 116 0088 FA68     		ldr	r2, [r7, #12]
 117 008a A423     		mov	r3, #164
 118 008c FB18     		add	r3, r7, r3
 119 008e 1B68     		ldr	r3, [r3]
 120 0090 D318     		add	r3, r2, r3
 121 0092 1978     		ldrb	r1, [r3]
 122 0094 1423     		mov	r3, #20
 123 0096 FA18     		add	r2, r7, r3
 124 0098 A823     		mov	r3, #168
 125 009a FB18     		add	r3, r7, r3
 126 009c 1B68     		ldr	r3, [r3]
 127 009e D318     		add	r3, r2, r3
 128 00a0 0A1C     		add	r2, r1, #0
 129 00a2 1A70     		strb	r2, [r3]
 178:Generated_Source\PSoC4/BLE_HAL_PVT.c ****                     /* Detect that row programming is required */
 179:Generated_Source\PSoC4/BLE_HAL_PVT.c ****                     if(CY_GET_XTND_REG8(CYDEV_FLASH_BASE + byteOffset) != buffer[srcIndex])
 130              		.loc 1 179 0
 131 00a4 9C23     		mov	r3, #156
 132 00a6 FB18     		add	r3, r7, r3
 133 00a8 1B68     		ldr	r3, [r3]
 134 00aa 1B78     		ldrb	r3, [r3]
 135 00ac DAB2     		uxtb	r2, r3
 136 00ae F968     		ldr	r1, [r7, #12]
 137 00b0 A423     		mov	r3, #164
 138 00b2 FB18     		add	r3, r7, r3
 139 00b4 1B68     		ldr	r3, [r3]
 140 00b6 CB18     		add	r3, r1, r3
 141 00b8 1B78     		ldrb	r3, [r3]
 142 00ba 9A42     		cmp	r2, r3
 143 00bc 03D0     		beq	.L6
 180:Generated_Source\PSoC4/BLE_HAL_PVT.c ****                     {
 181:Generated_Source\PSoC4/BLE_HAL_PVT.c ****                         rowsNotEqual = 1u;  
 144              		.loc 1 181 0
 145 00be 0123     		mov	r3, #1
 146 00c0 9822     		mov	r2, #152
 147 00c2 BA18     		add	r2, r7, r2
 148 00c4 1360     		str	r3, [r2]
 149              	.L6:
 182:Generated_Source\PSoC4/BLE_HAL_PVT.c ****                     }
 183:Generated_Source\PSoC4/BLE_HAL_PVT.c ****                     srcIndex++;
 150              		.loc 1 183 0
 151 00c6 A423     		mov	r3, #164
 152 00c8 FB18     		add	r3, r7, r3
 153 00ca 1B68     		ldr	r3, [r3]
 154 00cc 0133     		add	r3, r3, #1
 155 00ce A422     		mov	r2, #164
 156 00d0 BA18     		add	r2, r7, r2
 157 00d2 1360     		str	r3, [r2]
 158 00d4 0CE0     		b	.L7
 159              	.L5:
ARM GAS  C:\Users\Samay\AppData\Local\Temp\cc68IsdU.s 			page 7


 184:Generated_Source\PSoC4/BLE_HAL_PVT.c ****                 }
 185:Generated_Source\PSoC4/BLE_HAL_PVT.c ****                 else
 186:Generated_Source\PSoC4/BLE_HAL_PVT.c ****                 {
 187:Generated_Source\PSoC4/BLE_HAL_PVT.c ****                     writeBuffer[dstIndex] = CY_GET_XTND_REG8(CYDEV_FLASH_BASE + byteOffset);
 160              		.loc 1 187 0
 161 00d6 9C23     		mov	r3, #156
 162 00d8 FB18     		add	r3, r7, r3
 163 00da 1B68     		ldr	r3, [r3]
 164 00dc 1B78     		ldrb	r3, [r3]
 165 00de D9B2     		uxtb	r1, r3
 166 00e0 1423     		mov	r3, #20
 167 00e2 FA18     		add	r2, r7, r3
 168 00e4 A823     		mov	r3, #168
 169 00e6 FB18     		add	r3, r7, r3
 170 00e8 1B68     		ldr	r3, [r3]
 171 00ea D318     		add	r3, r2, r3
 172 00ec 0A1C     		add	r2, r1, #0
 173 00ee 1A70     		strb	r2, [r3]
 174              	.L7:
 188:Generated_Source\PSoC4/BLE_HAL_PVT.c ****                 }
 189:Generated_Source\PSoC4/BLE_HAL_PVT.c ****                 byteOffset++;
 175              		.loc 1 189 0 discriminator 2
 176 00f0 9C23     		mov	r3, #156
 177 00f2 FB18     		add	r3, r7, r3
 178 00f4 1B68     		ldr	r3, [r3]
 179 00f6 0133     		add	r3, r3, #1
 180 00f8 9C22     		mov	r2, #156
 181 00fa BA18     		add	r2, r7, r2
 182 00fc 1360     		str	r3, [r2]
 173:Generated_Source\PSoC4/BLE_HAL_PVT.c ****             {
 183              		.loc 1 173 0 discriminator 2
 184 00fe A823     		mov	r3, #168
 185 0100 FB18     		add	r3, r7, r3
 186 0102 1B68     		ldr	r3, [r3]
 187 0104 0133     		add	r3, r3, #1
 188 0106 A822     		mov	r2, #168
 189 0108 BA18     		add	r2, r7, r2
 190 010a 1360     		str	r3, [r2]
 191              	.L4:
 173:Generated_Source\PSoC4/BLE_HAL_PVT.c ****             {
 192              		.loc 1 173 0 is_stmt 0 discriminator 1
 193 010c A823     		mov	r3, #168
 194 010e FB18     		add	r3, r7, r3
 195 0110 1B68     		ldr	r3, [r3]
 196 0112 7F2B     		cmp	r3, #127
 197 0114 A9D9     		bls	.L8
 190:Generated_Source\PSoC4/BLE_HAL_PVT.c ****             }
 191:Generated_Source\PSoC4/BLE_HAL_PVT.c **** 
 192:Generated_Source\PSoC4/BLE_HAL_PVT.c ****             if(rowsNotEqual != 0u)
 198              		.loc 1 192 0 is_stmt 1
 199 0116 9823     		mov	r3, #152
 200 0118 FB18     		add	r3, r7, r3
 201 011a 1B68     		ldr	r3, [r3]
 202 011c 002B     		cmp	r3, #0
 203 011e 0CD0     		beq	.L9
 193:Generated_Source\PSoC4/BLE_HAL_PVT.c ****             {
 194:Generated_Source\PSoC4/BLE_HAL_PVT.c ****                 /* Write flash row */
ARM GAS  C:\Users\Samay\AppData\Local\Temp\cc68IsdU.s 			page 8


 195:Generated_Source\PSoC4/BLE_HAL_PVT.c ****                 rc = CySysFlashWriteRow(rowId, writeBuffer);
 204              		.loc 1 195 0
 205 0120 AC23     		mov	r3, #172
 206 0122 FB18     		add	r3, r7, r3
 207 0124 1A68     		ldr	r2, [r3]
 208 0126 1423     		mov	r3, #20
 209 0128 FB18     		add	r3, r7, r3
 210 012a 101C     		mov	r0, r2
 211 012c 191C     		mov	r1, r3
 212 012e FFF7FEFF 		bl	CySysFlashWriteRow
 213 0132 031C     		mov	r3, r0
 214 0134 A022     		mov	r2, #160
 215 0136 BA18     		add	r2, r7, r2
 216 0138 1360     		str	r3, [r2]
 217              	.L9:
 196:Generated_Source\PSoC4/BLE_HAL_PVT.c ****             }
 197:Generated_Source\PSoC4/BLE_HAL_PVT.c **** 
 198:Generated_Source\PSoC4/BLE_HAL_PVT.c ****             /* Go to the next row */
 199:Generated_Source\PSoC4/BLE_HAL_PVT.c ****             rowId++;
 218              		.loc 1 199 0
 219 013a AC23     		mov	r3, #172
 220 013c FB18     		add	r3, r7, r3
 221 013e 1B68     		ldr	r3, [r3]
 222 0140 0133     		add	r3, r3, #1
 223 0142 AC22     		mov	r2, #172
 224 0144 BA18     		add	r2, r7, r2
 225 0146 1360     		str	r3, [r2]
 226              	.L3:
 169:Generated_Source\PSoC4/BLE_HAL_PVT.c ****         {
 227              		.loc 1 169 0
 228 0148 BB1D     		add	r3, r7, #6
 229 014a 1A88     		ldrh	r2, [r3]
 230 014c A423     		mov	r3, #164
 231 014e FB18     		add	r3, r7, r3
 232 0150 1B68     		ldr	r3, [r3]
 233 0152 9A42     		cmp	r2, r3
 234 0154 0AD9     		bls	.L10
 169:Generated_Source\PSoC4/BLE_HAL_PVT.c ****         {
 235              		.loc 1 169 0 is_stmt 0 discriminator 1
 236 0156 A023     		mov	r3, #160
 237 0158 FB18     		add	r3, r7, r3
 238 015a 1B68     		ldr	r3, [r3]
 239 015c 002B     		cmp	r3, #0
 240 015e 00D1     		bne	.LCB201
 241 0160 7AE7     		b	.L11	@long jump
 242              	.LCB201:
 243 0162 03E0     		b	.L10
 244              	.L2:
 200:Generated_Source\PSoC4/BLE_HAL_PVT.c ****         }
 201:Generated_Source\PSoC4/BLE_HAL_PVT.c ****     }
 202:Generated_Source\PSoC4/BLE_HAL_PVT.c ****     else
 203:Generated_Source\PSoC4/BLE_HAL_PVT.c ****     {
 204:Generated_Source\PSoC4/BLE_HAL_PVT.c ****         rc = CYRET_BAD_PARAM;
 245              		.loc 1 204 0 is_stmt 1
 246 0164 0123     		mov	r3, #1
 247 0166 A022     		mov	r2, #160
 248 0168 BA18     		add	r2, r7, r2
ARM GAS  C:\Users\Samay\AppData\Local\Temp\cc68IsdU.s 			page 9


 249 016a 1360     		str	r3, [r2]
 250              	.L10:
 205:Generated_Source\PSoC4/BLE_HAL_PVT.c ****     }
 206:Generated_Source\PSoC4/BLE_HAL_PVT.c **** 
 207:Generated_Source\PSoC4/BLE_HAL_PVT.c ****     /* Mask return codes from flash, if they are not supported */
 208:Generated_Source\PSoC4/BLE_HAL_PVT.c ****     if ((CYRET_SUCCESS != rc) && (CYRET_BAD_PARAM != rc))
 251              		.loc 1 208 0
 252 016c A023     		mov	r3, #160
 253 016e FB18     		add	r3, r7, r3
 254 0170 1B68     		ldr	r3, [r3]
 255 0172 002B     		cmp	r3, #0
 256 0174 09D0     		beq	.L12
 257              		.loc 1 208 0 is_stmt 0 discriminator 1
 258 0176 A023     		mov	r3, #160
 259 0178 FB18     		add	r3, r7, r3
 260 017a 1B68     		ldr	r3, [r3]
 261 017c 012B     		cmp	r3, #1
 262 017e 04D0     		beq	.L12
 209:Generated_Source\PSoC4/BLE_HAL_PVT.c ****     {
 210:Generated_Source\PSoC4/BLE_HAL_PVT.c ****         rc = CYRET_UNKNOWN;
 263              		.loc 1 210 0 is_stmt 1
 264 0180 0123     		mov	r3, #1
 265 0182 5B42     		neg	r3, r3
 266 0184 A022     		mov	r2, #160
 267 0186 BA18     		add	r2, r7, r2
 268 0188 1360     		str	r3, [r2]
 269              	.L12:
 211:Generated_Source\PSoC4/BLE_HAL_PVT.c ****     }
 212:Generated_Source\PSoC4/BLE_HAL_PVT.c ****     
 213:Generated_Source\PSoC4/BLE_HAL_PVT.c ****     return (rc);
 270              		.loc 1 213 0
 271 018a A023     		mov	r3, #160
 272 018c FB18     		add	r3, r7, r3
 273 018e 1B68     		ldr	r3, [r3]
 214:Generated_Source\PSoC4/BLE_HAL_PVT.c **** }
 274              		.loc 1 214 0
 275 0190 181C     		mov	r0, r3
 276 0192 BD46     		mov	sp, r7
 277 0194 2CB0     		add	sp, sp, #176
 278              		@ sp needed
 279 0196 80BD     		pop	{r7, pc}
 280              	.L15:
 281              		.align	2
 282              	.L14:
 283 0198 FFFF0100 		.word	131071
 284              		.cfi_endproc
 285              	.LFE2:
 286              		.size	CyBLE_Nvram_Write, .-CyBLE_Nvram_Write
 287              		.section	.text.CyBLE_Nvram_Erase,"ax",%progbits
 288              		.align	2
 289              		.global	CyBLE_Nvram_Erase
 290              		.code	16
 291              		.thumb_func
 292              		.type	CyBLE_Nvram_Erase, %function
 293              	CyBLE_Nvram_Erase:
 294              	.LFB3:
 215:Generated_Source\PSoC4/BLE_HAL_PVT.c **** 
ARM GAS  C:\Users\Samay\AppData\Local\Temp\cc68IsdU.s 			page 10


 216:Generated_Source\PSoC4/BLE_HAL_PVT.c **** /*******************************************************************************
 217:Generated_Source\PSoC4/BLE_HAL_PVT.c **** * Function Name: CyBLE_Nvram_Erase
 218:Generated_Source\PSoC4/BLE_HAL_PVT.c **** ****************************************************************************//**
 219:Generated_Source\PSoC4/BLE_HAL_PVT.c **** *
 220:Generated_Source\PSoC4/BLE_HAL_PVT.c **** *  This API erases the data from the NVRAM store. This API will perform an 
 221:Generated_Source\PSoC4/BLE_HAL_PVT.c **** *  address range check based on the length before performing erase operation.
 222:Generated_Source\PSoC4/BLE_HAL_PVT.c **** *
 223:Generated_Source\PSoC4/BLE_HAL_PVT.c **** *  \param varFlash: the pointer to the array or variable in the flash.
 224:Generated_Source\PSoC4/BLE_HAL_PVT.c **** *  \param length:    the length of the data in bytes.
 225:Generated_Source\PSoC4/BLE_HAL_PVT.c **** *
 226:Generated_Source\PSoC4/BLE_HAL_PVT.c **** * \return
 227:Generated_Source\PSoC4/BLE_HAL_PVT.c **** *  CYRET_SUCCESS    a successful write
 228:Generated_Source\PSoC4/BLE_HAL_PVT.c **** *  CYRET_BAD_PARAM  A request to write outside the flash boundary.
 229:Generated_Source\PSoC4/BLE_HAL_PVT.c **** *  CYRET_UNKNOWN    Other errors in writing the flash
 230:Generated_Source\PSoC4/BLE_HAL_PVT.c **** *
 231:Generated_Source\PSoC4/BLE_HAL_PVT.c **** *******************************************************************************/
 232:Generated_Source\PSoC4/BLE_HAL_PVT.c **** cystatus CyBLE_Nvram_Erase (const uint8 *varFlash, uint16 length)
 233:Generated_Source\PSoC4/BLE_HAL_PVT.c **** {
 295              		.loc 1 233 0
 296              		.cfi_startproc
 297 0000 80B5     		push	{r7, lr}
 298              		.cfi_def_cfa_offset 8
 299              		.cfi_offset 7, -8
 300              		.cfi_offset 14, -4
 301 0002 A6B0     		sub	sp, sp, #152
 302              		.cfi_def_cfa_offset 160
 303 0004 00AF     		add	r7, sp, #0
 304              		.cfi_def_cfa_register 7
 305 0006 7860     		str	r0, [r7, #4]
 306 0008 0A1C     		mov	r2, r1
 307 000a BB1C     		add	r3, r7, #2
 308 000c 1A80     		strh	r2, [r3]
 234:Generated_Source\PSoC4/BLE_HAL_PVT.c ****     const uint8 *tempFlash;
 235:Generated_Source\PSoC4/BLE_HAL_PVT.c ****     uint8 flashBuffer[CY_FLASH_SIZEOF_ROW] = {0u};
 309              		.loc 1 235 0
 310 000e 0C23     		mov	r3, #12
 311 0010 FB18     		add	r3, r7, r3
 312 0012 1A1C     		mov	r2, r3
 313 0014 8023     		mov	r3, #128
 314 0016 101C     		mov	r0, r2
 315 0018 0021     		mov	r1, #0
 316 001a 1A1C     		mov	r2, r3
 317 001c FFF7FEFF 		bl	memset
 236:Generated_Source\PSoC4/BLE_HAL_PVT.c ****     uint16 lengthFlash;
 237:Generated_Source\PSoC4/BLE_HAL_PVT.c ****     uint16 lengthRemaining;
 238:Generated_Source\PSoC4/BLE_HAL_PVT.c ****     cystatus rc = CYRET_UNKNOWN;
 318              		.loc 1 238 0
 319 0020 0123     		mov	r3, #1
 320 0022 5B42     		neg	r3, r3
 321 0024 8C22     		mov	r2, #140
 322 0026 BA18     		add	r2, r7, r2
 323 0028 1360     		str	r3, [r2]
 239:Generated_Source\PSoC4/BLE_HAL_PVT.c **** 
 240:Generated_Source\PSoC4/BLE_HAL_PVT.c ****     tempFlash = varFlash;
 324              		.loc 1 240 0
 325 002a 7B68     		ldr	r3, [r7, #4]
 326 002c 9422     		mov	r2, #148
ARM GAS  C:\Users\Samay\AppData\Local\Temp\cc68IsdU.s 			page 11


 327 002e BA18     		add	r2, r7, r2
 328 0030 1360     		str	r3, [r2]
 241:Generated_Source\PSoC4/BLE_HAL_PVT.c ****     lengthRemaining = length;
 329              		.loc 1 241 0
 330 0032 9023     		mov	r3, #144
 331 0034 FB18     		add	r3, r7, r3
 332 0036 BA1C     		add	r2, r7, #2
 333 0038 1288     		ldrh	r2, [r2]
 334 003a 1A80     		strh	r2, [r3]
 242:Generated_Source\PSoC4/BLE_HAL_PVT.c **** 
 243:Generated_Source\PSoC4/BLE_HAL_PVT.c ****     while(lengthRemaining > 0u)
 335              		.loc 1 243 0
 336 003c 37E0     		b	.L17
 337              	.L22:
 244:Generated_Source\PSoC4/BLE_HAL_PVT.c ****     {
 245:Generated_Source\PSoC4/BLE_HAL_PVT.c ****         if(lengthRemaining < CY_FLASH_SIZEOF_ROW)
 338              		.loc 1 245 0
 339 003e 9023     		mov	r3, #144
 340 0040 FB18     		add	r3, r7, r3
 341 0042 1B88     		ldrh	r3, [r3]
 342 0044 7F2B     		cmp	r3, #127
 343 0046 06D8     		bhi	.L18
 246:Generated_Source\PSoC4/BLE_HAL_PVT.c ****         {
 247:Generated_Source\PSoC4/BLE_HAL_PVT.c ****             lengthFlash = lengthRemaining;
 344              		.loc 1 247 0
 345 0048 9223     		mov	r3, #146
 346 004a FB18     		add	r3, r7, r3
 347 004c 9022     		mov	r2, #144
 348 004e BA18     		add	r2, r7, r2
 349 0050 1288     		ldrh	r2, [r2]
 350 0052 1A80     		strh	r2, [r3]
 351 0054 03E0     		b	.L19
 352              	.L18:
 248:Generated_Source\PSoC4/BLE_HAL_PVT.c ****         }
 249:Generated_Source\PSoC4/BLE_HAL_PVT.c ****         else
 250:Generated_Source\PSoC4/BLE_HAL_PVT.c ****         {
 251:Generated_Source\PSoC4/BLE_HAL_PVT.c ****             lengthFlash = CY_FLASH_SIZEOF_ROW;
 353              		.loc 1 251 0
 354 0056 9223     		mov	r3, #146
 355 0058 FB18     		add	r3, r7, r3
 356 005a 8022     		mov	r2, #128
 357 005c 1A80     		strh	r2, [r3]
 358              	.L19:
 252:Generated_Source\PSoC4/BLE_HAL_PVT.c ****         }
 253:Generated_Source\PSoC4/BLE_HAL_PVT.c ****         rc = CyBLE_Nvram_Write(flashBuffer, tempFlash, lengthFlash);
 359              		.loc 1 253 0
 360 005e 0C23     		mov	r3, #12
 361 0060 F918     		add	r1, r7, r3
 362 0062 9423     		mov	r3, #148
 363 0064 FB18     		add	r3, r7, r3
 364 0066 1A68     		ldr	r2, [r3]
 365 0068 9223     		mov	r3, #146
 366 006a FB18     		add	r3, r7, r3
 367 006c 1B88     		ldrh	r3, [r3]
 368 006e 081C     		mov	r0, r1
 369 0070 111C     		mov	r1, r2
 370 0072 1A1C     		mov	r2, r3
ARM GAS  C:\Users\Samay\AppData\Local\Temp\cc68IsdU.s 			page 12


 371 0074 FFF7FEFF 		bl	CyBLE_Nvram_Write
 372 0078 031C     		mov	r3, r0
 373 007a 8C22     		mov	r2, #140
 374 007c BA18     		add	r2, r7, r2
 375 007e 1360     		str	r3, [r2]
 254:Generated_Source\PSoC4/BLE_HAL_PVT.c ****         if(rc != CYRET_SUCCESS)
 376              		.loc 1 254 0
 377 0080 8C23     		mov	r3, #140
 378 0082 FB18     		add	r3, r7, r3
 379 0084 1B68     		ldr	r3, [r3]
 380 0086 002B     		cmp	r3, #0
 381 0088 00D0     		beq	.L20
 255:Generated_Source\PSoC4/BLE_HAL_PVT.c ****         {
 256:Generated_Source\PSoC4/BLE_HAL_PVT.c ****             break;
 382              		.loc 1 256 0
 383 008a 15E0     		b	.L21
 384              	.L20:
 257:Generated_Source\PSoC4/BLE_HAL_PVT.c ****         }
 258:Generated_Source\PSoC4/BLE_HAL_PVT.c ****         tempFlash += CY_FLASH_SIZEOF_ROW;
 385              		.loc 1 258 0
 386 008c 9423     		mov	r3, #148
 387 008e FB18     		add	r3, r7, r3
 388 0090 1B68     		ldr	r3, [r3]
 389 0092 8033     		add	r3, r3, #128
 390 0094 9422     		mov	r2, #148
 391 0096 BA18     		add	r2, r7, r2
 392 0098 1360     		str	r3, [r2]
 259:Generated_Source\PSoC4/BLE_HAL_PVT.c ****         lengthRemaining -= lengthFlash;
 393              		.loc 1 259 0
 394 009a 9023     		mov	r3, #144
 395 009c FB18     		add	r3, r7, r3
 396 009e 9022     		mov	r2, #144
 397 00a0 B918     		add	r1, r7, r2
 398 00a2 9222     		mov	r2, #146
 399 00a4 BA18     		add	r2, r7, r2
 400 00a6 0988     		ldrh	r1, [r1]
 401 00a8 1288     		ldrh	r2, [r2]
 402 00aa 8A1A     		sub	r2, r1, r2
 403 00ac 1A80     		strh	r2, [r3]
 404              	.L17:
 243:Generated_Source\PSoC4/BLE_HAL_PVT.c ****     {
 405              		.loc 1 243 0
 406 00ae 9023     		mov	r3, #144
 407 00b0 FB18     		add	r3, r7, r3
 408 00b2 1B88     		ldrh	r3, [r3]
 409 00b4 002B     		cmp	r3, #0
 410 00b6 C2D1     		bne	.L22
 411              	.L21:
 260:Generated_Source\PSoC4/BLE_HAL_PVT.c ****     }
 261:Generated_Source\PSoC4/BLE_HAL_PVT.c **** 
 262:Generated_Source\PSoC4/BLE_HAL_PVT.c ****     return rc;
 412              		.loc 1 262 0
 413 00b8 8C23     		mov	r3, #140
 414 00ba FB18     		add	r3, r7, r3
 415 00bc 1B68     		ldr	r3, [r3]
 263:Generated_Source\PSoC4/BLE_HAL_PVT.c **** }
 416              		.loc 1 263 0
ARM GAS  C:\Users\Samay\AppData\Local\Temp\cc68IsdU.s 			page 13


 417 00be 181C     		mov	r0, r3
 418 00c0 BD46     		mov	sp, r7
 419 00c2 26B0     		add	sp, sp, #152
 420              		@ sp needed
 421 00c4 80BD     		pop	{r7, pc}
 422              		.cfi_endproc
 423              	.LFE3:
 424              		.size	CyBLE_Nvram_Erase, .-CyBLE_Nvram_Erase
 425 00c6 C046     		.section	.text.CyBLE_Bless_LlRegRead,"ax",%progbits
 426              		.align	2
 427              		.global	CyBLE_Bless_LlRegRead
 428              		.code	16
 429              		.thumb_func
 430              		.type	CyBLE_Bless_LlRegRead, %function
 431              	CyBLE_Bless_LlRegRead:
 432              	.LFB4:
 264:Generated_Source\PSoC4/BLE_HAL_PVT.c **** 
 265:Generated_Source\PSoC4/BLE_HAL_PVT.c **** 
 266:Generated_Source\PSoC4/BLE_HAL_PVT.c **** /*******************************************************************************
 267:Generated_Source\PSoC4/BLE_HAL_PVT.c **** * Function Name: CyBLE_Bless_LlRegRead
 268:Generated_Source\PSoC4/BLE_HAL_PVT.c **** ****************************************************************************//**
 269:Generated_Source\PSoC4/BLE_HAL_PVT.c **** *
 270:Generated_Source\PSoC4/BLE_HAL_PVT.c **** *  This API reads the content of the BLESS Link Layer register from the stack.
 271:Generated_Source\PSoC4/BLE_HAL_PVT.c **** *
 272:Generated_Source\PSoC4/BLE_HAL_PVT.c **** *  \param blessAddr: the pointer to the BLESS link layer address.
 273:Generated_Source\PSoC4/BLE_HAL_PVT.c **** *  \param regValue: the pointer to the buffer space to copy the read value.
 274:Generated_Source\PSoC4/BLE_HAL_PVT.c **** *
 275:Generated_Source\PSoC4/BLE_HAL_PVT.c **** * \return
 276:Generated_Source\PSoC4/BLE_HAL_PVT.c **** *  None
 277:Generated_Source\PSoC4/BLE_HAL_PVT.c **** *
 278:Generated_Source\PSoC4/BLE_HAL_PVT.c **** *******************************************************************************/
 279:Generated_Source\PSoC4/BLE_HAL_PVT.c **** void CyBLE_Bless_LlRegRead (const reg32 *blessAddr, uint16 *regValue)
 280:Generated_Source\PSoC4/BLE_HAL_PVT.c **** {
 433              		.loc 1 280 0
 434              		.cfi_startproc
 435 0000 80B5     		push	{r7, lr}
 436              		.cfi_def_cfa_offset 8
 437              		.cfi_offset 7, -8
 438              		.cfi_offset 14, -4
 439 0002 82B0     		sub	sp, sp, #8
 440              		.cfi_def_cfa_offset 16
 441 0004 00AF     		add	r7, sp, #0
 442              		.cfi_def_cfa_register 7
 443 0006 7860     		str	r0, [r7, #4]
 444 0008 3960     		str	r1, [r7]
 281:Generated_Source\PSoC4/BLE_HAL_PVT.c ****     *regValue = (uint16)CY_GET_REG32(blessAddr);
 445              		.loc 1 281 0
 446 000a 7B68     		ldr	r3, [r7, #4]
 447 000c 1B68     		ldr	r3, [r3]
 448 000e 9AB2     		uxth	r2, r3
 449 0010 3B68     		ldr	r3, [r7]
 450 0012 1A80     		strh	r2, [r3]
 282:Generated_Source\PSoC4/BLE_HAL_PVT.c **** }
 451              		.loc 1 282 0
 452 0014 BD46     		mov	sp, r7
 453 0016 02B0     		add	sp, sp, #8
 454              		@ sp needed
ARM GAS  C:\Users\Samay\AppData\Local\Temp\cc68IsdU.s 			page 14


 455 0018 80BD     		pop	{r7, pc}
 456              		.cfi_endproc
 457              	.LFE4:
 458              		.size	CyBLE_Bless_LlRegRead, .-CyBLE_Bless_LlRegRead
 459 001a C046     		.section	.text.CyBLE_Bless_LlRegWrite,"ax",%progbits
 460              		.align	2
 461              		.global	CyBLE_Bless_LlRegWrite
 462              		.code	16
 463              		.thumb_func
 464              		.type	CyBLE_Bless_LlRegWrite, %function
 465              	CyBLE_Bless_LlRegWrite:
 466              	.LFB5:
 283:Generated_Source\PSoC4/BLE_HAL_PVT.c **** 
 284:Generated_Source\PSoC4/BLE_HAL_PVT.c **** 
 285:Generated_Source\PSoC4/BLE_HAL_PVT.c **** /*******************************************************************************
 286:Generated_Source\PSoC4/BLE_HAL_PVT.c **** * Function Name: CyBLE_Bless_LlRegWrite
 287:Generated_Source\PSoC4/BLE_HAL_PVT.c **** ****************************************************************************//**
 288:Generated_Source\PSoC4/BLE_HAL_PVT.c **** *
 289:Generated_Source\PSoC4/BLE_HAL_PVT.c **** *  This API writes to the BLESS Link Layer register from the stack.
 290:Generated_Source\PSoC4/BLE_HAL_PVT.c **** *
 291:Generated_Source\PSoC4/BLE_HAL_PVT.c **** *  \param blessAddr: the pointer to the BLESS link layer address.
 292:Generated_Source\PSoC4/BLE_HAL_PVT.c **** *  \param regValue: the pointer to the value to be written to the BLESS LL reg.
 293:Generated_Source\PSoC4/BLE_HAL_PVT.c **** *
 294:Generated_Source\PSoC4/BLE_HAL_PVT.c **** * \return
 295:Generated_Source\PSoC4/BLE_HAL_PVT.c **** *  None
 296:Generated_Source\PSoC4/BLE_HAL_PVT.c **** *
 297:Generated_Source\PSoC4/BLE_HAL_PVT.c **** *******************************************************************************/
 298:Generated_Source\PSoC4/BLE_HAL_PVT.c **** void CyBLE_Bless_LlRegWrite (reg32 *blessAddr, const uint16 regValue)
 299:Generated_Source\PSoC4/BLE_HAL_PVT.c **** {
 467              		.loc 1 299 0
 468              		.cfi_startproc
 469 0000 80B5     		push	{r7, lr}
 470              		.cfi_def_cfa_offset 8
 471              		.cfi_offset 7, -8
 472              		.cfi_offset 14, -4
 473 0002 82B0     		sub	sp, sp, #8
 474              		.cfi_def_cfa_offset 16
 475 0004 00AF     		add	r7, sp, #0
 476              		.cfi_def_cfa_register 7
 477 0006 7860     		str	r0, [r7, #4]
 478 0008 0A1C     		mov	r2, r1
 479 000a BB1C     		add	r3, r7, #2
 480 000c 1A80     		strh	r2, [r3]
 300:Generated_Source\PSoC4/BLE_HAL_PVT.c ****     CY_SET_REG32(blessAddr, regValue);
 481              		.loc 1 300 0
 482 000e BB1C     		add	r3, r7, #2
 483 0010 1A88     		ldrh	r2, [r3]
 484 0012 7B68     		ldr	r3, [r7, #4]
 485 0014 1A60     		str	r2, [r3]
 301:Generated_Source\PSoC4/BLE_HAL_PVT.c **** }
 486              		.loc 1 301 0
 487 0016 BD46     		mov	sp, r7
 488 0018 02B0     		add	sp, sp, #8
 489              		@ sp needed
 490 001a 80BD     		pop	{r7, pc}
 491              		.cfi_endproc
 492              	.LFE5:
ARM GAS  C:\Users\Samay\AppData\Local\Temp\cc68IsdU.s 			page 15


 493              		.size	CyBLE_Bless_LlRegWrite, .-CyBLE_Bless_LlRegWrite
 494              		.section	.text.CyBLE_Bless_RfRegRead,"ax",%progbits
 495              		.align	2
 496              		.global	CyBLE_Bless_RfRegRead
 497              		.code	16
 498              		.thumb_func
 499              		.type	CyBLE_Bless_RfRegRead, %function
 500              	CyBLE_Bless_RfRegRead:
 501              	.LFB6:
 302:Generated_Source\PSoC4/BLE_HAL_PVT.c **** 
 303:Generated_Source\PSoC4/BLE_HAL_PVT.c **** 
 304:Generated_Source\PSoC4/BLE_HAL_PVT.c **** /*******************************************************************************
 305:Generated_Source\PSoC4/BLE_HAL_PVT.c **** * Function Name: CyBLE_Bless_RfRegRead
 306:Generated_Source\PSoC4/BLE_HAL_PVT.c **** ****************************************************************************//**
 307:Generated_Source\PSoC4/BLE_HAL_PVT.c **** *
 308:Generated_Source\PSoC4/BLE_HAL_PVT.c **** *  This API reads the content of the BLESS RF register from the stack.
 309:Generated_Source\PSoC4/BLE_HAL_PVT.c **** *
 310:Generated_Source\PSoC4/BLE_HAL_PVT.c **** *  \param blessAddr: the pointer to BLESS RF register address.
 311:Generated_Source\PSoC4/BLE_HAL_PVT.c **** *  \param regValue: the pointer to the buffer space to copy the read value.
 312:Generated_Source\PSoC4/BLE_HAL_PVT.c **** *
 313:Generated_Source\PSoC4/BLE_HAL_PVT.c **** * \return
 314:Generated_Source\PSoC4/BLE_HAL_PVT.c **** *  None
 315:Generated_Source\PSoC4/BLE_HAL_PVT.c **** *
 316:Generated_Source\PSoC4/BLE_HAL_PVT.c **** *******************************************************************************/
 317:Generated_Source\PSoC4/BLE_HAL_PVT.c **** void CyBLE_Bless_RfRegRead (const reg32 *blessAddr, uint16 *regValue)
 318:Generated_Source\PSoC4/BLE_HAL_PVT.c **** {
 502              		.loc 1 318 0
 503              		.cfi_startproc
 504 0000 80B5     		push	{r7, lr}
 505              		.cfi_def_cfa_offset 8
 506              		.cfi_offset 7, -8
 507              		.cfi_offset 14, -4
 508 0002 82B0     		sub	sp, sp, #8
 509              		.cfi_def_cfa_offset 16
 510 0004 00AF     		add	r7, sp, #0
 511              		.cfi_def_cfa_register 7
 512 0006 7860     		str	r0, [r7, #4]
 513 0008 3960     		str	r1, [r7]
 319:Generated_Source\PSoC4/BLE_HAL_PVT.c ****     *regValue = (uint16)CY_GET_REG32(blessAddr);
 514              		.loc 1 319 0
 515 000a 7B68     		ldr	r3, [r7, #4]
 516 000c 1B68     		ldr	r3, [r3]
 517 000e 9AB2     		uxth	r2, r3
 518 0010 3B68     		ldr	r3, [r7]
 519 0012 1A80     		strh	r2, [r3]
 320:Generated_Source\PSoC4/BLE_HAL_PVT.c **** }
 520              		.loc 1 320 0
 521 0014 BD46     		mov	sp, r7
 522 0016 02B0     		add	sp, sp, #8
 523              		@ sp needed
 524 0018 80BD     		pop	{r7, pc}
 525              		.cfi_endproc
 526              	.LFE6:
 527              		.size	CyBLE_Bless_RfRegRead, .-CyBLE_Bless_RfRegRead
 528 001a C046     		.section	.text.CyBLE_Bless_RfRegWrite,"ax",%progbits
 529              		.align	2
 530              		.global	CyBLE_Bless_RfRegWrite
ARM GAS  C:\Users\Samay\AppData\Local\Temp\cc68IsdU.s 			page 16


 531              		.code	16
 532              		.thumb_func
 533              		.type	CyBLE_Bless_RfRegWrite, %function
 534              	CyBLE_Bless_RfRegWrite:
 535              	.LFB7:
 321:Generated_Source\PSoC4/BLE_HAL_PVT.c **** 
 322:Generated_Source\PSoC4/BLE_HAL_PVT.c **** 
 323:Generated_Source\PSoC4/BLE_HAL_PVT.c **** /*******************************************************************************
 324:Generated_Source\PSoC4/BLE_HAL_PVT.c **** * Function Name: CyBLE_Bless_RfRegWrite
 325:Generated_Source\PSoC4/BLE_HAL_PVT.c **** ****************************************************************************//**
 326:Generated_Source\PSoC4/BLE_HAL_PVT.c **** *
 327:Generated_Source\PSoC4/BLE_HAL_PVT.c **** *  This API writes to the BLESS RF register from the stack.
 328:Generated_Source\PSoC4/BLE_HAL_PVT.c **** *
 329:Generated_Source\PSoC4/BLE_HAL_PVT.c **** *  \param blessAddr: the pointer to the BLESS RF address.
 330:Generated_Source\PSoC4/BLE_HAL_PVT.c **** *  \param regValue: the pointer to the value to be written to the BLESS RF reg.
 331:Generated_Source\PSoC4/BLE_HAL_PVT.c **** *
 332:Generated_Source\PSoC4/BLE_HAL_PVT.c **** * \return
 333:Generated_Source\PSoC4/BLE_HAL_PVT.c **** *  None
 334:Generated_Source\PSoC4/BLE_HAL_PVT.c **** *
 335:Generated_Source\PSoC4/BLE_HAL_PVT.c **** *******************************************************************************/
 336:Generated_Source\PSoC4/BLE_HAL_PVT.c **** void CyBLE_Bless_RfRegWrite (reg32 *blessAddr, const uint16 regValue)
 337:Generated_Source\PSoC4/BLE_HAL_PVT.c **** {
 536              		.loc 1 337 0
 537              		.cfi_startproc
 538 0000 80B5     		push	{r7, lr}
 539              		.cfi_def_cfa_offset 8
 540              		.cfi_offset 7, -8
 541              		.cfi_offset 14, -4
 542 0002 82B0     		sub	sp, sp, #8
 543              		.cfi_def_cfa_offset 16
 544 0004 00AF     		add	r7, sp, #0
 545              		.cfi_def_cfa_register 7
 546 0006 7860     		str	r0, [r7, #4]
 547 0008 0A1C     		mov	r2, r1
 548 000a BB1C     		add	r3, r7, #2
 549 000c 1A80     		strh	r2, [r3]
 338:Generated_Source\PSoC4/BLE_HAL_PVT.c ****      CY_SET_REG32(blessAddr, regValue);
 550              		.loc 1 338 0
 551 000e BB1C     		add	r3, r7, #2
 552 0010 1A88     		ldrh	r2, [r3]
 553 0012 7B68     		ldr	r3, [r7, #4]
 554 0014 1A60     		str	r2, [r3]
 339:Generated_Source\PSoC4/BLE_HAL_PVT.c **** }
 555              		.loc 1 339 0
 556 0016 BD46     		mov	sp, r7
 557 0018 02B0     		add	sp, sp, #8
 558              		@ sp needed
 559 001a 80BD     		pop	{r7, pc}
 560              		.cfi_endproc
 561              	.LFE7:
 562              		.size	CyBLE_Bless_RfRegWrite, .-CyBLE_Bless_RfRegWrite
 563              		.section	.text.CyBLE_BlessDeviceConfig,"ax",%progbits
 564              		.align	2
 565              		.global	CyBLE_BlessDeviceConfig
 566              		.code	16
 567              		.thumb_func
 568              		.type	CyBLE_BlessDeviceConfig, %function
ARM GAS  C:\Users\Samay\AppData\Local\Temp\cc68IsdU.s 			page 17


 569              	CyBLE_BlessDeviceConfig:
 570              	.LFB8:
 340:Generated_Source\PSoC4/BLE_HAL_PVT.c **** 
 341:Generated_Source\PSoC4/BLE_HAL_PVT.c **** /*******************************************************************************
 342:Generated_Source\PSoC4/BLE_HAL_PVT.c **** * Function Name: CyBLE_BlessDeviceConfig
 343:Generated_Source\PSoC4/BLE_HAL_PVT.c **** ****************************************************************************//**
 344:Generated_Source\PSoC4/BLE_HAL_PVT.c **** *
 345:Generated_Source\PSoC4/BLE_HAL_PVT.c **** *  This function configures BLESS registers by trimmed values stored in SFLASH.
 346:Generated_Source\PSoC4/BLE_HAL_PVT.c **** *
 347:Generated_Source\PSoC4/BLE_HAL_PVT.c **** * \return
 348:Generated_Source\PSoC4/BLE_HAL_PVT.c **** *  None
 349:Generated_Source\PSoC4/BLE_HAL_PVT.c **** *
 350:Generated_Source\PSoC4/BLE_HAL_PVT.c **** *******************************************************************************/
 351:Generated_Source\PSoC4/BLE_HAL_PVT.c **** void CyBLE_BlessDeviceConfig(void)
 352:Generated_Source\PSoC4/BLE_HAL_PVT.c **** {
 571              		.loc 1 352 0
 572              		.cfi_startproc
 573 0000 80B5     		push	{r7, lr}
 574              		.cfi_def_cfa_offset 8
 575              		.cfi_offset 7, -8
 576              		.cfi_offset 14, -4
 577 0002 84B0     		sub	sp, sp, #16
 578              		.cfi_def_cfa_offset 24
 579 0004 00AF     		add	r7, sp, #0
 580              		.cfi_def_cfa_register 7
 353:Generated_Source\PSoC4/BLE_HAL_PVT.c **** #if (CYIPBLOCK_m0s8bless_VERSION < 3)
 354:Generated_Source\PSoC4/BLE_HAL_PVT.c ****     
 355:Generated_Source\PSoC4/BLE_HAL_PVT.c ****     uint32 trimRegValue;
 356:Generated_Source\PSoC4/BLE_HAL_PVT.c ****     uint32 ldo;
 357:Generated_Source\PSoC4/BLE_HAL_PVT.c ****     uint16 trimRef34Val;
 358:Generated_Source\PSoC4/BLE_HAL_PVT.c ****     uint16 trimRef38Val;    
 359:Generated_Source\PSoC4/BLE_HAL_PVT.c ****     uint32 siliconRev;
 360:Generated_Source\PSoC4/BLE_HAL_PVT.c **** 
 361:Generated_Source\PSoC4/BLE_HAL_PVT.c ****     trimRegValue = ((uint32)CYBLE_SFLASH_BLESS_BB_BUMP2_HIGH_REG << 8u) | CYBLE_SFLASH_BLESS_BB_BUM
 581              		.loc 1 361 0
 582 0006 494B     		ldr	r3, .L36
 583 0008 1B78     		ldrb	r3, [r3]
 584 000a DBB2     		uxtb	r3, r3
 585 000c 1B02     		lsl	r3, r3, #8
 586 000e 484A     		ldr	r2, .L36+4
 587 0010 1278     		ldrb	r2, [r2]
 588 0012 D2B2     		uxtb	r2, r2
 589 0014 1343     		orr	r3, r2
 590 0016 FB60     		str	r3, [r7, #12]
 362:Generated_Source\PSoC4/BLE_HAL_PVT.c ****     ldo = ((uint32)CYBLE_SFLASH_BLESS_LDO_HIGH_REG << 8u) | CYBLE_SFLASH_BLESS_LDO_LOW_REG;
 591              		.loc 1 362 0
 592 0018 464B     		ldr	r3, .L36+8
 593 001a 1B78     		ldrb	r3, [r3]
 594 001c DBB2     		uxtb	r3, r3
 595 001e 1B02     		lsl	r3, r3, #8
 596 0020 454A     		ldr	r2, .L36+12
 597 0022 1278     		ldrb	r2, [r2]
 598 0024 D2B2     		uxtb	r2, r2
 599 0026 1343     		orr	r3, r2
 600 0028 BB60     		str	r3, [r7, #8]
 363:Generated_Source\PSoC4/BLE_HAL_PVT.c **** 
 364:Generated_Source\PSoC4/BLE_HAL_PVT.c ****     if ((ldo == CYBLE_SFLASH_BLERD_LDO_REG_VAL1) && (trimRegValue == CYBLE_SFLASH_BLERD_BB_BUMP2_RE
ARM GAS  C:\Users\Samay\AppData\Local\Temp\cc68IsdU.s 			page 18


 601              		.loc 1 364 0
 602 002a BB68     		ldr	r3, [r7, #8]
 603 002c 434A     		ldr	r2, .L36+16
 604 002e 9342     		cmp	r3, r2
 605 0030 07D1     		bne	.L29
 606              		.loc 1 364 0 is_stmt 0 discriminator 1
 607 0032 FB68     		ldr	r3, [r7, #12]
 608 0034 072B     		cmp	r3, #7
 609 0036 04D1     		bne	.L29
 365:Generated_Source\PSoC4/BLE_HAL_PVT.c ****     {
 366:Generated_Source\PSoC4/BLE_HAL_PVT.c ****         ldo = CYBLE_BLERD_LDO_REG_VAL_FINAL;
 610              		.loc 1 366 0 is_stmt 1
 611 0038 414B     		ldr	r3, .L36+20
 612 003a BB60     		str	r3, [r7, #8]
 367:Generated_Source\PSoC4/BLE_HAL_PVT.c ****         trimRegValue = CYBLE_BLERD_BB_BUMP2_REG_VAL_FINAL;
 613              		.loc 1 367 0
 614 003c 0423     		mov	r3, #4
 615 003e FB60     		str	r3, [r7, #12]
 616 0040 09E0     		b	.L30
 617              	.L29:
 368:Generated_Source\PSoC4/BLE_HAL_PVT.c ****     }
 369:Generated_Source\PSoC4/BLE_HAL_PVT.c ****     else if ((ldo == CYBLE_SFLASH_BLERD_LDO_REG_VAL2) && (trimRegValue == CYBLE_BLERD_BB_BUMP2_REG_
 618              		.loc 1 369 0
 619 0042 BA68     		ldr	r2, [r7, #8]
 620 0044 D423     		mov	r3, #212
 621 0046 1B01     		lsl	r3, r3, #4
 622 0048 9A42     		cmp	r2, r3
 623 004a 04D1     		bne	.L30
 624              		.loc 1 369 0 is_stmt 0 discriminator 1
 625 004c FB68     		ldr	r3, [r7, #12]
 626 004e 042B     		cmp	r3, #4
 627 0050 01D1     		bne	.L30
 370:Generated_Source\PSoC4/BLE_HAL_PVT.c ****     {
 371:Generated_Source\PSoC4/BLE_HAL_PVT.c ****         ldo = CYBLE_BLERD_LDO_REG_VAL_FINAL;
 628              		.loc 1 371 0 is_stmt 1
 629 0052 3B4B     		ldr	r3, .L36+20
 630 0054 BB60     		str	r3, [r7, #8]
 631              	.L30:
 372:Generated_Source\PSoC4/BLE_HAL_PVT.c ****     }
 373:Generated_Source\PSoC4/BLE_HAL_PVT.c ****     else
 374:Generated_Source\PSoC4/BLE_HAL_PVT.c ****     {
 375:Generated_Source\PSoC4/BLE_HAL_PVT.c ****     }
 376:Generated_Source\PSoC4/BLE_HAL_PVT.c **** 
 377:Generated_Source\PSoC4/BLE_HAL_PVT.c ****     CYBLE_BLE_BLERD_LDO_REG = ldo;
 632              		.loc 1 377 0
 633 0056 3B4B     		ldr	r3, .L36+24
 634 0058 BA68     		ldr	r2, [r7, #8]
 635 005a 1A60     		str	r2, [r3]
 378:Generated_Source\PSoC4/BLE_HAL_PVT.c ****     CYBLE_BLE_BLERD_BB_BUMP2_REG = trimRegValue;
 636              		.loc 1 378 0
 637 005c 3A4B     		ldr	r3, .L36+28
 638 005e FA68     		ldr	r2, [r7, #12]
 639 0060 1A60     		str	r2, [r3]
 379:Generated_Source\PSoC4/BLE_HAL_PVT.c **** 
 380:Generated_Source\PSoC4/BLE_HAL_PVT.c ****     /* Edit only XTAL fast charge bit */
 381:Generated_Source\PSoC4/BLE_HAL_PVT.c ****     trimRegValue = ((uint32)CYBLE_SFLASH_BLESS_BB_XO_HIGH_REG << 8u) | CYBLE_SFLASH_BLESS_BB_XO_LOW
 640              		.loc 1 381 0
ARM GAS  C:\Users\Samay\AppData\Local\Temp\cc68IsdU.s 			page 19


 641 0062 3A4B     		ldr	r3, .L36+32
 642 0064 1B78     		ldrb	r3, [r3]
 643 0066 DBB2     		uxtb	r3, r3
 644 0068 1B02     		lsl	r3, r3, #8
 645 006a 394A     		ldr	r2, .L36+36
 646 006c 1278     		ldrb	r2, [r2]
 647 006e D2B2     		uxtb	r2, r2
 648 0070 1343     		orr	r3, r2
 649 0072 FB60     		str	r3, [r7, #12]
 382:Generated_Source\PSoC4/BLE_HAL_PVT.c **** 
 383:Generated_Source\PSoC4/BLE_HAL_PVT.c ****     if ((trimRegValue == CYBLE_SFLASH_BLERD_BB_XO_REG_VAL1) || (trimRegValue == CYBLE_SFLASH_BLERD_
 650              		.loc 1 383 0
 651 0074 FA68     		ldr	r2, [r7, #12]
 652 0076 8023     		mov	r3, #128
 653 0078 9B01     		lsl	r3, r3, #6
 654 007a 9A42     		cmp	r2, r3
 655 007c 02D0     		beq	.L31
 656              		.loc 1 383 0 is_stmt 0 discriminator 1
 657 007e FB68     		ldr	r3, [r7, #12]
 658 0080 002B     		cmp	r3, #0
 659 0082 01D1     		bne	.L32
 660              	.L31:
 384:Generated_Source\PSoC4/BLE_HAL_PVT.c ****     {
 385:Generated_Source\PSoC4/BLE_HAL_PVT.c ****         trimRegValue = CYBLE_BLERD_BB_XO_REG_VAL_FINAL;
 661              		.loc 1 385 0 is_stmt 1
 662 0084 334B     		ldr	r3, .L36+40
 663 0086 FB60     		str	r3, [r7, #12]
 664              	.L32:
 386:Generated_Source\PSoC4/BLE_HAL_PVT.c ****     }
 387:Generated_Source\PSoC4/BLE_HAL_PVT.c ****     
 388:Generated_Source\PSoC4/BLE_HAL_PVT.c ****     CYBLE_BLE_BLERD_BB_XO_REG = trimRegValue;
 665              		.loc 1 388 0
 666 0088 334B     		ldr	r3, .L36+44
 667 008a FA68     		ldr	r2, [r7, #12]
 668 008c 1A60     		str	r2, [r3]
 389:Generated_Source\PSoC4/BLE_HAL_PVT.c ****     
 390:Generated_Source\PSoC4/BLE_HAL_PVT.c ****     trimRegValue = ((uint32)CYBLE_SFLASH_BLESS_SY_BUMP1_HIGH_REG << 8u) | CYBLE_SFLASH_BLESS_SY_BUM
 669              		.loc 1 390 0
 670 008e 334B     		ldr	r3, .L36+48
 671 0090 1B78     		ldrb	r3, [r3]
 672 0092 DBB2     		uxtb	r3, r3
 673 0094 1B02     		lsl	r3, r3, #8
 674 0096 324A     		ldr	r2, .L36+52
 675 0098 1278     		ldrb	r2, [r2]
 676 009a D2B2     		uxtb	r2, r2
 677 009c 1343     		orr	r3, r2
 678 009e FB60     		str	r3, [r7, #12]
 391:Generated_Source\PSoC4/BLE_HAL_PVT.c **** 
 392:Generated_Source\PSoC4/BLE_HAL_PVT.c ****     if ((trimRegValue == CYBLE_SFLASH_BLERD_SY_BUMP1_REG_VAL1) || 
 679              		.loc 1 392 0
 680 00a0 FB68     		ldr	r3, [r7, #12]
 681 00a2 304A     		ldr	r2, .L36+56
 682 00a4 9342     		cmp	r3, r2
 683 00a6 06D0     		beq	.L33
 684              		.loc 1 392 0 is_stmt 0 discriminator 1
 685 00a8 FB68     		ldr	r3, [r7, #12]
 686 00aa 2F4A     		ldr	r2, .L36+60
ARM GAS  C:\Users\Samay\AppData\Local\Temp\cc68IsdU.s 			page 20


 687 00ac 9342     		cmp	r3, r2
 688 00ae 02D0     		beq	.L33
 393:Generated_Source\PSoC4/BLE_HAL_PVT.c ****         (trimRegValue == CYBLE_SFLASH_BLERD_SY_BUMP1_REG_VAL2) ||  
 689              		.loc 1 393 0 is_stmt 1
 690 00b0 FB68     		ldr	r3, [r7, #12]
 691 00b2 052B     		cmp	r3, #5
 692 00b4 01D1     		bne	.L34
 693              	.L33:
 394:Generated_Source\PSoC4/BLE_HAL_PVT.c ****         (trimRegValue == CYBLE_SFLASH_BLERD_SY_BUMP1_REG_VAL3))
 395:Generated_Source\PSoC4/BLE_HAL_PVT.c ****     {
 396:Generated_Source\PSoC4/BLE_HAL_PVT.c ****         trimRegValue = CYBLE_BLERD_SY_BUMP1_REG_VAL_FINAL;
 694              		.loc 1 396 0
 695 00b6 2D4B     		ldr	r3, .L36+64
 696 00b8 FB60     		str	r3, [r7, #12]
 697              	.L34:
 397:Generated_Source\PSoC4/BLE_HAL_PVT.c ****     }
 398:Generated_Source\PSoC4/BLE_HAL_PVT.c ****     CYBLE_BLE_BLERD_SY_BUMP1_REG = trimRegValue;
 698              		.loc 1 398 0
 699 00ba 2D4B     		ldr	r3, .L36+68
 700 00bc FA68     		ldr	r2, [r7, #12]
 701 00be 1A60     		str	r2, [r3]
 399:Generated_Source\PSoC4/BLE_HAL_PVT.c **** 
 400:Generated_Source\PSoC4/BLE_HAL_PVT.c ****     /* Following code is for F02FN trimming */
 401:Generated_Source\PSoC4/BLE_HAL_PVT.c ****     siliconRev = (CYBLE_BLE_SILICON_REV_REG >> 4u);
 702              		.loc 1 401 0
 703 00c0 2C4B     		ldr	r3, .L36+72
 704 00c2 1B68     		ldr	r3, [r3]
 705 00c4 1B09     		lsr	r3, r3, #4
 706 00c6 7B60     		str	r3, [r7, #4]
 402:Generated_Source\PSoC4/BLE_HAL_PVT.c ****     
 403:Generated_Source\PSoC4/BLE_HAL_PVT.c ****     if((CYBLE_BLE_FAMILY_ID_REG == CYBLE_PSOC4A_BLE256DMA_FID) && (siliconRev >= 0x02u) &&
 707              		.loc 1 403 0
 708 00c8 2B4B     		ldr	r3, .L36+76
 709 00ca 1B68     		ldr	r3, [r3]
 710 00cc AA2B     		cmp	r3, #170
 711 00ce 29D1     		bne	.L28
 712              		.loc 1 403 0 is_stmt 0 discriminator 1
 713 00d0 7B68     		ldr	r3, [r7, #4]
 714 00d2 012B     		cmp	r3, #1
 715 00d4 26D9     		bls	.L28
 404:Generated_Source\PSoC4/BLE_HAL_PVT.c ****         (CYBLE_SFLASH_BLESS_SY_BUMP1_HIGH_REG == 0x0Eu))
 716              		.loc 1 404 0 is_stmt 1 discriminator 2
 717 00d6 214B     		ldr	r3, .L36+48
 718 00d8 1B78     		ldrb	r3, [r3]
 719 00da DBB2     		uxtb	r3, r3
 403:Generated_Source\PSoC4/BLE_HAL_PVT.c ****         (CYBLE_SFLASH_BLESS_SY_BUMP1_HIGH_REG == 0x0Eu))
 720              		.loc 1 403 0 discriminator 2
 721 00dc 0E2B     		cmp	r3, #14
 722 00de 21D1     		bne	.L28
 405:Generated_Source\PSoC4/BLE_HAL_PVT.c **** 	{
 406:Generated_Source\PSoC4/BLE_HAL_PVT.c **** 		trimRef34Val = ((uint16)(((uint16) CYBLE_BLE_BLESS_REG34_TRIM_HIGH_REG) << 8u)) |
 723              		.loc 1 406 0
 724 00e0 264B     		ldr	r3, .L36+80
 725 00e2 1B78     		ldrb	r3, [r3]
 726 00e4 DBB2     		uxtb	r3, r3
 727 00e6 9BB2     		uxth	r3, r3
 728 00e8 1B02     		lsl	r3, r3, #8
ARM GAS  C:\Users\Samay\AppData\Local\Temp\cc68IsdU.s 			page 21


 729 00ea 99B2     		uxth	r1, r3
 407:Generated_Source\PSoC4/BLE_HAL_PVT.c ****                         ((uint16)CYBLE_BLE_BLESS_REG34_TRIM_LOW_REG);
 730              		.loc 1 407 0
 731 00ec 244B     		ldr	r3, .L36+84
 732 00ee 1B78     		ldrb	r3, [r3]
 733 00f0 DBB2     		uxtb	r3, r3
 406:Generated_Source\PSoC4/BLE_HAL_PVT.c ****                         ((uint16)CYBLE_BLE_BLESS_REG34_TRIM_LOW_REG);
 734              		.loc 1 406 0
 735 00f2 9AB2     		uxth	r2, r3
 736 00f4 BB1C     		add	r3, r7, #2
 737 00f6 0A43     		orr	r2, r1
 738 00f8 1A80     		strh	r2, [r3]
 408:Generated_Source\PSoC4/BLE_HAL_PVT.c **** 		CYBLE_BLERD_SY_BUMP2_REG = trimRef34Val;
 739              		.loc 1 408 0
 740 00fa 224B     		ldr	r3, .L36+88
 741 00fc BA1C     		add	r2, r7, #2
 742 00fe 1288     		ldrh	r2, [r2]
 743 0100 1A60     		str	r2, [r3]
 409:Generated_Source\PSoC4/BLE_HAL_PVT.c **** 	
 410:Generated_Source\PSoC4/BLE_HAL_PVT.c **** 		trimRef38Val = ((uint16)(((uint16)CYBLE_BLE_BLESS_REG38_TRIM_HIGH_REG) << 8u)) |
 744              		.loc 1 410 0
 745 0102 214B     		ldr	r3, .L36+92
 746 0104 1B78     		ldrb	r3, [r3]
 747 0106 DBB2     		uxtb	r3, r3
 748 0108 9BB2     		uxth	r3, r3
 749 010a 1B02     		lsl	r3, r3, #8
 750 010c 99B2     		uxth	r1, r3
 411:Generated_Source\PSoC4/BLE_HAL_PVT.c ****             ((uint16) CYBLE_BLE_BLESS_REG38_TRIM_LOW_REG);
 751              		.loc 1 411 0
 752 010e 1F4B     		ldr	r3, .L36+96
 753 0110 1B78     		ldrb	r3, [r3]
 754 0112 DBB2     		uxtb	r3, r3
 410:Generated_Source\PSoC4/BLE_HAL_PVT.c ****             ((uint16) CYBLE_BLE_BLESS_REG38_TRIM_LOW_REG);
 755              		.loc 1 410 0
 756 0114 9AB2     		uxth	r2, r3
 757 0116 3B1C     		mov	r3, r7
 758 0118 0A43     		orr	r2, r1
 759 011a 1A80     		strh	r2, [r3]
 412:Generated_Source\PSoC4/BLE_HAL_PVT.c **** 		CYBLE_BLERD_RX_BUMP2_REG = trimRef38Val;
 760              		.loc 1 412 0
 761 011c 1C4B     		ldr	r3, .L36+100
 762 011e 3A1C     		mov	r2, r7
 763 0120 1288     		ldrh	r2, [r2]
 764 0122 1A60     		str	r2, [r3]
 765              	.L28:
 413:Generated_Source\PSoC4/BLE_HAL_PVT.c **** 	}
 414:Generated_Source\PSoC4/BLE_HAL_PVT.c **** #endif /* (CYIPBLOCK_m0s8bless_VERSION < 3) */
 415:Generated_Source\PSoC4/BLE_HAL_PVT.c **** }
 766              		.loc 1 415 0
 767 0124 BD46     		mov	sp, r7
 768 0126 04B0     		add	sp, sp, #16
 769              		@ sp needed
 770 0128 80BD     		pop	{r7, pc}
 771              	.L37:
 772 012a C046     		.align	2
 773              	.L36:
 774 012c D9F0FF0F 		.word	268431577
ARM GAS  C:\Users\Samay\AppData\Local\Temp\cc68IsdU.s 			page 22


 775 0130 D8F0FF0F 		.word	268431576
 776 0134 DFF0FF0F 		.word	268431583
 777 0138 DEF0FF0F 		.word	268431582
 778 013c 580B0000 		.word	2904
 779 0140 580D0000 		.word	3416
 780 0144 6C002E40 		.word	1076756588
 781 0148 74002E40 		.word	1076756596
 782 014c DBF0FF0F 		.word	268431579
 783 0150 DAF0FF0F 		.word	268431578
 784 0154 02200000 		.word	8194
 785 0158 78002E40 		.word	1076756600
 786 015c DDF0FF0F 		.word	268431581
 787 0160 DCF0FF0F 		.word	268431580
 788 0164 0F0F0000 		.word	3855
 789 0168 05050000 		.word	1285
 790 016c 050F0000 		.word	3845
 791 0170 80002E40 		.word	1076756608
 792 0174 EC0F00F0 		.word	-268431380
 793 0178 E00F00F0 		.word	-268431392
 794 017c 6DF2FF0F 		.word	268431981
 795 0180 6CF2FF0F 		.word	268431980
 796 0184 84002E40 		.word	1076756612
 797 0188 6FF2FF0F 		.word	268431983
 798 018c 6EF2FF0F 		.word	268431982
 799 0190 94002E40 		.word	1076756628
 800              		.cfi_endproc
 801              	.LFE8:
 802              		.size	CyBLE_BlessDeviceConfig, .-CyBLE_BlessDeviceConfig
 803              		.section	.text.CyBleHal_DelayUs,"ax",%progbits
 804              		.align	2
 805              		.global	CyBleHal_DelayUs
 806              		.code	16
 807              		.thumb_func
 808              		.type	CyBleHal_DelayUs, %function
 809              	CyBleHal_DelayUs:
 810              	.LFB9:
 416:Generated_Source\PSoC4/BLE_HAL_PVT.c **** 
 417:Generated_Source\PSoC4/BLE_HAL_PVT.c **** 
 418:Generated_Source\PSoC4/BLE_HAL_PVT.c **** /* Interface to CyDelayUs function */
 419:Generated_Source\PSoC4/BLE_HAL_PVT.c **** void CyBleHal_DelayUs(uint16 delayVal)
 420:Generated_Source\PSoC4/BLE_HAL_PVT.c **** {
 811              		.loc 1 420 0
 812              		.cfi_startproc
 813 0000 80B5     		push	{r7, lr}
 814              		.cfi_def_cfa_offset 8
 815              		.cfi_offset 7, -8
 816              		.cfi_offset 14, -4
 817 0002 82B0     		sub	sp, sp, #8
 818              		.cfi_def_cfa_offset 16
 819 0004 00AF     		add	r7, sp, #0
 820              		.cfi_def_cfa_register 7
 821 0006 021C     		mov	r2, r0
 822 0008 BB1D     		add	r3, r7, #6
 823 000a 1A80     		strh	r2, [r3]
 421:Generated_Source\PSoC4/BLE_HAL_PVT.c ****     CyDelayUs(delayVal);
 824              		.loc 1 421 0
 825 000c BB1D     		add	r3, r7, #6
ARM GAS  C:\Users\Samay\AppData\Local\Temp\cc68IsdU.s 			page 23


 826 000e 1B88     		ldrh	r3, [r3]
 827 0010 181C     		mov	r0, r3
 828 0012 FFF7FEFF 		bl	CyDelayUs
 422:Generated_Source\PSoC4/BLE_HAL_PVT.c **** }
 829              		.loc 1 422 0
 830 0016 BD46     		mov	sp, r7
 831 0018 02B0     		add	sp, sp, #8
 832              		@ sp needed
 833 001a 80BD     		pop	{r7, pc}
 834              		.cfi_endproc
 835              	.LFE9:
 836              		.size	CyBleHal_DelayUs, .-CyBleHal_DelayUs
 837              		.section	.text.CyBleHal_DelayMs,"ax",%progbits
 838              		.align	2
 839              		.global	CyBleHal_DelayMs
 840              		.code	16
 841              		.thumb_func
 842              		.type	CyBleHal_DelayMs, %function
 843              	CyBleHal_DelayMs:
 844              	.LFB10:
 423:Generated_Source\PSoC4/BLE_HAL_PVT.c **** 
 424:Generated_Source\PSoC4/BLE_HAL_PVT.c **** /* Interface to CyDelay function */
 425:Generated_Source\PSoC4/BLE_HAL_PVT.c **** void CyBleHal_DelayMs(uint32 delayVal)
 426:Generated_Source\PSoC4/BLE_HAL_PVT.c **** {
 845              		.loc 1 426 0
 846              		.cfi_startproc
 847 0000 80B5     		push	{r7, lr}
 848              		.cfi_def_cfa_offset 8
 849              		.cfi_offset 7, -8
 850              		.cfi_offset 14, -4
 851 0002 82B0     		sub	sp, sp, #8
 852              		.cfi_def_cfa_offset 16
 853 0004 00AF     		add	r7, sp, #0
 854              		.cfi_def_cfa_register 7
 855 0006 7860     		str	r0, [r7, #4]
 427:Generated_Source\PSoC4/BLE_HAL_PVT.c ****     CyDelay(delayVal);
 856              		.loc 1 427 0
 857 0008 7B68     		ldr	r3, [r7, #4]
 858 000a 181C     		mov	r0, r3
 859 000c FFF7FEFF 		bl	CyDelay
 428:Generated_Source\PSoC4/BLE_HAL_PVT.c **** }
 860              		.loc 1 428 0
 861 0010 BD46     		mov	sp, r7
 862 0012 02B0     		add	sp, sp, #8
 863              		@ sp needed
 864 0014 80BD     		pop	{r7, pc}
 865              		.cfi_endproc
 866              	.LFE10:
 867              		.size	CyBleHal_DelayMs, .-CyBleHal_DelayMs
 868 0016 C046     		.section	.text.CyBleHal_EnableGlobalInterrupts,"ax",%progbits
 869              		.align	2
 870              		.global	CyBleHal_EnableGlobalInterrupts
 871              		.code	16
 872              		.thumb_func
 873              		.type	CyBleHal_EnableGlobalInterrupts, %function
 874              	CyBleHal_EnableGlobalInterrupts:
 875              	.LFB11:
ARM GAS  C:\Users\Samay\AppData\Local\Temp\cc68IsdU.s 			page 24


 429:Generated_Source\PSoC4/BLE_HAL_PVT.c **** 
 430:Generated_Source\PSoC4/BLE_HAL_PVT.c **** /* Interface to BLE_bless_isr_Enable function */
 431:Generated_Source\PSoC4/BLE_HAL_PVT.c **** void CyBleHal_EnableGlobalInterrupts(void)
 432:Generated_Source\PSoC4/BLE_HAL_PVT.c **** {
 876              		.loc 1 432 0
 877              		.cfi_startproc
 878 0000 80B5     		push	{r7, lr}
 879              		.cfi_def_cfa_offset 8
 880              		.cfi_offset 7, -8
 881              		.cfi_offset 14, -4
 882 0002 00AF     		add	r7, sp, #0
 883              		.cfi_def_cfa_register 7
 433:Generated_Source\PSoC4/BLE_HAL_PVT.c ****     BLE_bless_isr_Enable();
 884              		.loc 1 433 0
 885 0004 FFF7FEFF 		bl	BLE_bless_isr_Enable
 434:Generated_Source\PSoC4/BLE_HAL_PVT.c **** }
 886              		.loc 1 434 0
 887 0008 BD46     		mov	sp, r7
 888              		@ sp needed
 889 000a 80BD     		pop	{r7, pc}
 890              		.cfi_endproc
 891              	.LFE11:
 892              		.size	CyBleHal_EnableGlobalInterrupts, .-CyBleHal_EnableGlobalInterrupts
 893              		.section	.text.CyBleHal_DisableGlobalInterrupts,"ax",%progbits
 894              		.align	2
 895              		.global	CyBleHal_DisableGlobalInterrupts
 896              		.code	16
 897              		.thumb_func
 898              		.type	CyBleHal_DisableGlobalInterrupts, %function
 899              	CyBleHal_DisableGlobalInterrupts:
 900              	.LFB12:
 435:Generated_Source\PSoC4/BLE_HAL_PVT.c **** 
 436:Generated_Source\PSoC4/BLE_HAL_PVT.c **** /* Interface to BLE_bless_isr_Disable function */
 437:Generated_Source\PSoC4/BLE_HAL_PVT.c **** void CyBleHal_DisableGlobalInterrupts(void)
 438:Generated_Source\PSoC4/BLE_HAL_PVT.c **** {
 901              		.loc 1 438 0
 902              		.cfi_startproc
 903 0000 80B5     		push	{r7, lr}
 904              		.cfi_def_cfa_offset 8
 905              		.cfi_offset 7, -8
 906              		.cfi_offset 14, -4
 907 0002 00AF     		add	r7, sp, #0
 908              		.cfi_def_cfa_register 7
 439:Generated_Source\PSoC4/BLE_HAL_PVT.c ****     BLE_bless_isr_Disable();
 909              		.loc 1 439 0
 910 0004 FFF7FEFF 		bl	BLE_bless_isr_Disable
 440:Generated_Source\PSoC4/BLE_HAL_PVT.c **** }
 911              		.loc 1 440 0
 912 0008 BD46     		mov	sp, r7
 913              		@ sp needed
 914 000a 80BD     		pop	{r7, pc}
 915              		.cfi_endproc
 916              	.LFE12:
 917              		.size	CyBleHal_DisableGlobalInterrupts, .-CyBleHal_DisableGlobalInterrupts
 918              		.section	.text.CyBle_HalInit,"ax",%progbits
 919              		.align	2
 920              		.global	CyBle_HalInit
ARM GAS  C:\Users\Samay\AppData\Local\Temp\cc68IsdU.s 			page 25


 921              		.code	16
 922              		.thumb_func
 923              		.type	CyBle_HalInit, %function
 924              	CyBle_HalInit:
 925              	.LFB13:
 441:Generated_Source\PSoC4/BLE_HAL_PVT.c **** 
 442:Generated_Source\PSoC4/BLE_HAL_PVT.c **** /*******************************************************************************
 443:Generated_Source\PSoC4/BLE_HAL_PVT.c **** * Function Name: CyBle_HalInit
 444:Generated_Source\PSoC4/BLE_HAL_PVT.c **** ****************************************************************************//**
 445:Generated_Source\PSoC4/BLE_HAL_PVT.c **** *
 446:Generated_Source\PSoC4/BLE_HAL_PVT.c **** *  Initializes the BLESS interrupt.
 447:Generated_Source\PSoC4/BLE_HAL_PVT.c **** *
 448:Generated_Source\PSoC4/BLE_HAL_PVT.c **** * \return
 449:Generated_Source\PSoC4/BLE_HAL_PVT.c **** *  None
 450:Generated_Source\PSoC4/BLE_HAL_PVT.c **** *
 451:Generated_Source\PSoC4/BLE_HAL_PVT.c **** *******************************************************************************/
 452:Generated_Source\PSoC4/BLE_HAL_PVT.c **** void CyBle_HalInit(void)
 453:Generated_Source\PSoC4/BLE_HAL_PVT.c **** {
 926              		.loc 1 453 0
 927              		.cfi_startproc
 928 0000 80B5     		push	{r7, lr}
 929              		.cfi_def_cfa_offset 8
 930              		.cfi_offset 7, -8
 931              		.cfi_offset 14, -4
 932 0002 00AF     		add	r7, sp, #0
 933              		.cfi_def_cfa_register 7
 454:Generated_Source\PSoC4/BLE_HAL_PVT.c ****     /* For all we know the interrupt is active. */
 455:Generated_Source\PSoC4/BLE_HAL_PVT.c ****     BLE_bless_isr_Disable();
 934              		.loc 1 455 0
 935 0004 FFF7FEFF 		bl	BLE_bless_isr_Disable
 456:Generated_Source\PSoC4/BLE_HAL_PVT.c **** 
 457:Generated_Source\PSoC4/BLE_HAL_PVT.c ****     /* Set the ISR to point to the BLE_bless_isr Interrupt. */
 458:Generated_Source\PSoC4/BLE_HAL_PVT.c ****     BLE_bless_isr_SetVector(&CyBLE_Bless_Interrupt);
 936              		.loc 1 458 0
 937 0008 044B     		ldr	r3, .L43
 938 000a 181C     		mov	r0, r3
 939 000c FFF7FEFF 		bl	BLE_bless_isr_SetVector
 459:Generated_Source\PSoC4/BLE_HAL_PVT.c **** 
 460:Generated_Source\PSoC4/BLE_HAL_PVT.c ****     /* Set the priority. */
 461:Generated_Source\PSoC4/BLE_HAL_PVT.c ****     BLE_bless_isr_SetPriority((uint8)BLE_bless_isr_INTC_PRIOR_NUMBER);
 940              		.loc 1 461 0
 941 0010 0320     		mov	r0, #3
 942 0012 FFF7FEFF 		bl	BLE_bless_isr_SetPriority
 462:Generated_Source\PSoC4/BLE_HAL_PVT.c **** }
 943              		.loc 1 462 0
 944 0016 BD46     		mov	sp, r7
 945              		@ sp needed
 946 0018 80BD     		pop	{r7, pc}
 947              	.L44:
 948 001a C046     		.align	2
 949              	.L43:
 950 001c 00000000 		.word	CyBLE_Bless_Interrupt
 951              		.cfi_endproc
 952              	.LFE13:
 953              		.size	CyBle_HalInit, .-CyBle_HalInit
 954              		.section	.text.CYBLE_BlessStart,"ax",%progbits
 955              		.align	2
ARM GAS  C:\Users\Samay\AppData\Local\Temp\cc68IsdU.s 			page 26


 956              		.global	CYBLE_BlessStart
 957              		.code	16
 958              		.thumb_func
 959              		.type	CYBLE_BlessStart, %function
 960              	CYBLE_BlessStart:
 961              	.LFB14:
 463:Generated_Source\PSoC4/BLE_HAL_PVT.c **** 
 464:Generated_Source\PSoC4/BLE_HAL_PVT.c **** 
 465:Generated_Source\PSoC4/BLE_HAL_PVT.c **** /*******************************************************************************
 466:Generated_Source\PSoC4/BLE_HAL_PVT.c **** * Function Name: CYBLE_BlessStart
 467:Generated_Source\PSoC4/BLE_HAL_PVT.c **** ****************************************************************************//**
 468:Generated_Source\PSoC4/BLE_HAL_PVT.c **** *
 469:Generated_Source\PSoC4/BLE_HAL_PVT.c **** *  Start Interrupt Controller API.
 470:Generated_Source\PSoC4/BLE_HAL_PVT.c **** *
 471:Generated_Source\PSoC4/BLE_HAL_PVT.c **** * \return
 472:Generated_Source\PSoC4/BLE_HAL_PVT.c **** *  None
 473:Generated_Source\PSoC4/BLE_HAL_PVT.c **** *
 474:Generated_Source\PSoC4/BLE_HAL_PVT.c **** *******************************************************************************/
 475:Generated_Source\PSoC4/BLE_HAL_PVT.c **** void CYBLE_BlessStart(void)
 476:Generated_Source\PSoC4/BLE_HAL_PVT.c **** {
 962              		.loc 1 476 0
 963              		.cfi_startproc
 964 0000 80B5     		push	{r7, lr}
 965              		.cfi_def_cfa_offset 8
 966              		.cfi_offset 7, -8
 967              		.cfi_offset 14, -4
 968 0002 00AF     		add	r7, sp, #0
 969              		.cfi_def_cfa_register 7
 477:Generated_Source\PSoC4/BLE_HAL_PVT.c **** #if((CYBLE_M0S8BLESS_VERSION_3) && (CYBLE_EXT_PA_ENABLED))
 478:Generated_Source\PSoC4/BLE_HAL_PVT.c ****     CYBLE_EXT_PA_LNA_CTRL_REG |= CYBLE_EXT_PA_LNA_ENABLE | CYBLE_EXT_OUT_EN_DRIVE_VAL; 
 479:Generated_Source\PSoC4/BLE_HAL_PVT.c **** #endif  /* (CYBLE_M0S8BLESS_VERSION_3) */
 480:Generated_Source\PSoC4/BLE_HAL_PVT.c **** 
 481:Generated_Source\PSoC4/BLE_HAL_PVT.c ****     BLE_bless_isr_StartEx(&CyBLE_Bless_Interrupt);
 970              		.loc 1 481 0
 971 0004 024B     		ldr	r3, .L46
 972 0006 181C     		mov	r0, r3
 973 0008 FFF7FEFF 		bl	BLE_bless_isr_StartEx
 482:Generated_Source\PSoC4/BLE_HAL_PVT.c **** }
 974              		.loc 1 482 0
 975 000c BD46     		mov	sp, r7
 976              		@ sp needed
 977 000e 80BD     		pop	{r7, pc}
 978              	.L47:
 979              		.align	2
 980              	.L46:
 981 0010 00000000 		.word	CyBLE_Bless_Interrupt
 982              		.cfi_endproc
 983              	.LFE14:
 984              		.size	CYBLE_BlessStart, .-CYBLE_BlessStart
 985              		.section	.text.CyBLE_GetIpBlockVersion,"ax",%progbits
 986              		.align	2
 987              		.global	CyBLE_GetIpBlockVersion
 988              		.code	16
 989              		.thumb_func
 990              		.type	CyBLE_GetIpBlockVersion, %function
 991              	CyBLE_GetIpBlockVersion:
 992              	.LFB15:
ARM GAS  C:\Users\Samay\AppData\Local\Temp\cc68IsdU.s 			page 27


 483:Generated_Source\PSoC4/BLE_HAL_PVT.c **** 
 484:Generated_Source\PSoC4/BLE_HAL_PVT.c **** 
 485:Generated_Source\PSoC4/BLE_HAL_PVT.c **** /*******************************************************************************
 486:Generated_Source\PSoC4/BLE_HAL_PVT.c **** * Function Name: CyBLE_GetIpBlockVersion
 487:Generated_Source\PSoC4/BLE_HAL_PVT.c **** ****************************************************************************//**
 488:Generated_Source\PSoC4/BLE_HAL_PVT.c **** *
 489:Generated_Source\PSoC4/BLE_HAL_PVT.c **** * This API returns the version of m0s8bless ip block.
 490:Generated_Source\PSoC4/BLE_HAL_PVT.c **** *
 491:Generated_Source\PSoC4/BLE_HAL_PVT.c **** * \return
 492:Generated_Source\PSoC4/BLE_HAL_PVT.c **** * uint32 bits:
 493:Generated_Source\PSoC4/BLE_HAL_PVT.c **** * 7:0 - ip version ( 1 - BLE_ver1, 2 - BLE_ver2, 3 - BLE_ver3 )
 494:Generated_Source\PSoC4/BLE_HAL_PVT.c **** * 15:8 - flash size ( 0 - 128k, 1 - 256k )
 495:Generated_Source\PSoC4/BLE_HAL_PVT.c **** * 16 - PSVP device
 496:Generated_Source\PSoC4/BLE_HAL_PVT.c **** * 31:17 - reserved for future usage
 497:Generated_Source\PSoC4/BLE_HAL_PVT.c **** *
 498:Generated_Source\PSoC4/BLE_HAL_PVT.c **** *******************************************************************************/
 499:Generated_Source\PSoC4/BLE_HAL_PVT.c **** uint32 CyBLE_GetIpBlockVersion(void)
 500:Generated_Source\PSoC4/BLE_HAL_PVT.c **** {
 993              		.loc 1 500 0
 994              		.cfi_startproc
 995 0000 80B5     		push	{r7, lr}
 996              		.cfi_def_cfa_offset 8
 997              		.cfi_offset 7, -8
 998              		.cfi_offset 14, -4
 999 0002 00AF     		add	r7, sp, #0
 1000              		.cfi_def_cfa_register 7
 501:Generated_Source\PSoC4/BLE_HAL_PVT.c ****     return(((uint32)CYBLE_M0S8BLESS_VERSION) | ((uint32)((uint32)CYBLE_FLASH_SIZE) << 8u) |
 1001              		.loc 1 501 0
 1002 0004 0223     		mov	r3, #2
 1003 0006 FF33     		add	r3, r3, #255
 502:Generated_Source\PSoC4/BLE_HAL_PVT.c ****         ((uint32)(((uint32)CYBLE_PSVP_DEVICE)) << 16u));
 503:Generated_Source\PSoC4/BLE_HAL_PVT.c **** }
 1004              		.loc 1 503 0
 1005 0008 181C     		mov	r0, r3
 1006 000a BD46     		mov	sp, r7
 1007              		@ sp needed
 1008 000c 80BD     		pop	{r7, pc}
 1009              		.cfi_endproc
 1010              	.LFE15:
 1011              		.size	CyBLE_GetIpBlockVersion, .-CyBLE_GetIpBlockVersion
 1012 000e C046     		.section	.text.CyBle_Hal_pairing_local_public_key_handler,"ax",%progbits
 1013              		.align	2
 1014              		.global	CyBle_Hal_pairing_local_public_key_handler
 1015              		.code	16
 1016              		.thumb_func
 1017              		.type	CyBle_Hal_pairing_local_public_key_handler, %function
 1018              	CyBle_Hal_pairing_local_public_key_handler:
 1019              	.LFB16:
 504:Generated_Source\PSoC4/BLE_HAL_PVT.c **** 
 505:Generated_Source\PSoC4/BLE_HAL_PVT.c **** /* Mapping functions for stack size optimization */
 506:Generated_Source\PSoC4/BLE_HAL_PVT.c **** #if(CYBLE_MODE_PROFILE)
 507:Generated_Source\PSoC4/BLE_HAL_PVT.c ****     
 508:Generated_Source\PSoC4/BLE_HAL_PVT.c **** #if(CYBLE_SECURE_CONN_FEATURE_ENABLED)
 509:Generated_Source\PSoC4/BLE_HAL_PVT.c ****     
 510:Generated_Source\PSoC4/BLE_HAL_PVT.c ****     CYBLE_API_RESULT_T CyBle_Hal_pairing_local_public_key_handler(void *param)
 511:Generated_Source\PSoC4/BLE_HAL_PVT.c ****     {
 512:Generated_Source\PSoC4/BLE_HAL_PVT.c ****         return (CyBle_Hal_mapping_pairing_local_public_key_handler(param));
ARM GAS  C:\Users\Samay\AppData\Local\Temp\cc68IsdU.s 			page 28


 513:Generated_Source\PSoC4/BLE_HAL_PVT.c ****     }
 514:Generated_Source\PSoC4/BLE_HAL_PVT.c ****      
 515:Generated_Source\PSoC4/BLE_HAL_PVT.c ****     CYBLE_API_RESULT_T CyBle_Hal_pairing_remote_key_handler(void *param)
 516:Generated_Source\PSoC4/BLE_HAL_PVT.c ****     {
 517:Generated_Source\PSoC4/BLE_HAL_PVT.c ****         return (CyBle_Hal_mapping_pairing_remote_key_handler(param));
 518:Generated_Source\PSoC4/BLE_HAL_PVT.c ****     }
 519:Generated_Source\PSoC4/BLE_HAL_PVT.c ****      
 520:Generated_Source\PSoC4/BLE_HAL_PVT.c ****     CYBLE_API_RESULT_T CyBle_Hal_pairing_dhkey_handler(void *param)
 521:Generated_Source\PSoC4/BLE_HAL_PVT.c ****     {
 522:Generated_Source\PSoC4/BLE_HAL_PVT.c ****         return (CyBle_Hal_mapping_pairing_dhkey_handler(param));
 523:Generated_Source\PSoC4/BLE_HAL_PVT.c ****     }
 524:Generated_Source\PSoC4/BLE_HAL_PVT.c **** 
 525:Generated_Source\PSoC4/BLE_HAL_PVT.c ****     CYBLE_API_RESULT_T CyBle_Hal_pairing_dhkey_check_handler(void *param)
 526:Generated_Source\PSoC4/BLE_HAL_PVT.c ****     {
 527:Generated_Source\PSoC4/BLE_HAL_PVT.c ****         return (CyBle_Hal_mapping_pairing_dhkey_check_handler(param));
 528:Generated_Source\PSoC4/BLE_HAL_PVT.c ****     }
 529:Generated_Source\PSoC4/BLE_HAL_PVT.c **** 
 530:Generated_Source\PSoC4/BLE_HAL_PVT.c ****     CYBLE_API_RESULT_T CyBle_Hal_pairing_keypress_notification_handler(void *param)
 531:Generated_Source\PSoC4/BLE_HAL_PVT.c ****     {
 532:Generated_Source\PSoC4/BLE_HAL_PVT.c ****         return (CyBle_Hal_mapping_pairing_keypress_notification_handler(param));
 533:Generated_Source\PSoC4/BLE_HAL_PVT.c ****     }
 534:Generated_Source\PSoC4/BLE_HAL_PVT.c **** 
 535:Generated_Source\PSoC4/BLE_HAL_PVT.c ****     CYBLE_API_RESULT_T CyBle_Hal_pairing_rand_handler(void *param)
 536:Generated_Source\PSoC4/BLE_HAL_PVT.c ****     {
 537:Generated_Source\PSoC4/BLE_HAL_PVT.c ****         return (CyBle_Hal_mapping_pairing_rand_handler(param));
 538:Generated_Source\PSoC4/BLE_HAL_PVT.c ****     }
 539:Generated_Source\PSoC4/BLE_HAL_PVT.c **** 
 540:Generated_Source\PSoC4/BLE_HAL_PVT.c ****     CYBLE_API_RESULT_T CyBle_Hal_pairing_confirm_handler(void *param)
 541:Generated_Source\PSoC4/BLE_HAL_PVT.c ****     {
 542:Generated_Source\PSoC4/BLE_HAL_PVT.c ****         return (CyBle_Hal_mapping_pairing_confirm_handler(param));
 543:Generated_Source\PSoC4/BLE_HAL_PVT.c ****     }
 544:Generated_Source\PSoC4/BLE_HAL_PVT.c **** 
 545:Generated_Source\PSoC4/BLE_HAL_PVT.c ****     CYBLE_API_RESULT_T CyBle_Hal_pairing_lr_confirming_handler(void *param)
 546:Generated_Source\PSoC4/BLE_HAL_PVT.c ****     {
 547:Generated_Source\PSoC4/BLE_HAL_PVT.c ****         return (CyBle_Hal_mapping_pairing_lr_confirming_handler(param));
 548:Generated_Source\PSoC4/BLE_HAL_PVT.c ****     }
 549:Generated_Source\PSoC4/BLE_HAL_PVT.c ****     
 550:Generated_Source\PSoC4/BLE_HAL_PVT.c ****     CYBLE_API_RESULT_T CyBle_Hal_pairing_sc_tbx_dhkey_generate_complete(void* param)
 551:Generated_Source\PSoC4/BLE_HAL_PVT.c ****     {
 552:Generated_Source\PSoC4/BLE_HAL_PVT.c ****         CyBle_Hal_mapping_tbx_dhkey_generate_complete(param);
 553:Generated_Source\PSoC4/BLE_HAL_PVT.c ****         return (CYBLE_ERROR_OK);
 554:Generated_Source\PSoC4/BLE_HAL_PVT.c ****     }
 555:Generated_Source\PSoC4/BLE_HAL_PVT.c **** 
 556:Generated_Source\PSoC4/BLE_HAL_PVT.c ****     CYBLE_API_RESULT_T CyBle_Hal_pairing_sc_tbx_local_pubkey_generate_complete(void)
 557:Generated_Source\PSoC4/BLE_HAL_PVT.c ****     {
 558:Generated_Source\PSoC4/BLE_HAL_PVT.c ****         CyBle_Hal_mapping_tbx_local_pubkey_generate_complete();
 559:Generated_Source\PSoC4/BLE_HAL_PVT.c ****         return (CYBLE_ERROR_OK);
 560:Generated_Source\PSoC4/BLE_HAL_PVT.c ****     }
 561:Generated_Source\PSoC4/BLE_HAL_PVT.c **** 
 562:Generated_Source\PSoC4/BLE_HAL_PVT.c ****     CYBLE_API_RESULT_T CyBle_Hal_pairing_sc_tbx_generate_local_P256_public_key(uint8 param)
 563:Generated_Source\PSoC4/BLE_HAL_PVT.c ****     {
 564:Generated_Source\PSoC4/BLE_HAL_PVT.c ****         return (CyBle_Hal_mapping_tbx_generate_local_P256_public_key(param));
 565:Generated_Source\PSoC4/BLE_HAL_PVT.c ****     }
 566:Generated_Source\PSoC4/BLE_HAL_PVT.c **** 
 567:Generated_Source\PSoC4/BLE_HAL_PVT.c ****     CYBLE_API_RESULT_T CyBle_Hal_pairing_sc_tbx_generate_DHkey(void  * param1, void  * param2)
 568:Generated_Source\PSoC4/BLE_HAL_PVT.c ****     {
 569:Generated_Source\PSoC4/BLE_HAL_PVT.c ****         return (CyBle_Hal_mapping_tbx_generate_DHkey(param1, param2));
ARM GAS  C:\Users\Samay\AppData\Local\Temp\cc68IsdU.s 			page 29


 570:Generated_Source\PSoC4/BLE_HAL_PVT.c ****     }
 571:Generated_Source\PSoC4/BLE_HAL_PVT.c **** 
 572:Generated_Source\PSoC4/BLE_HAL_PVT.c ****     void CyBle_Hal_smp_sc_cmac_complete(void)
 573:Generated_Source\PSoC4/BLE_HAL_PVT.c ****     {
 574:Generated_Source\PSoC4/BLE_HAL_PVT.c ****        CyBle_Hal_Mapping_smp_sc_cmac_complete();
 575:Generated_Source\PSoC4/BLE_HAL_PVT.c ****     }
 576:Generated_Source\PSoC4/BLE_HAL_PVT.c **** 
 577:Generated_Source\PSoC4/BLE_HAL_PVT.c ****     CYBLE_API_RESULT_T CyBle_Hal_se_smp_sc_user_passkey_handler(void *param1, void *param2)
 578:Generated_Source\PSoC4/BLE_HAL_PVT.c ****     {
 579:Generated_Source\PSoC4/BLE_HAL_PVT.c ****         return (CyBle_Hal_mapping_se_smp_sc_user_passkey_handler(param1, param2));
 580:Generated_Source\PSoC4/BLE_HAL_PVT.c ****     }
 581:Generated_Source\PSoC4/BLE_HAL_PVT.c **** 
 582:Generated_Source\PSoC4/BLE_HAL_PVT.c ****     void CyBle_Hal_EccPointMult(void)
 583:Generated_Source\PSoC4/BLE_HAL_PVT.c ****     {
 584:Generated_Source\PSoC4/BLE_HAL_PVT.c ****         CyBle_Hal_Mapping_EccPointMult();
 585:Generated_Source\PSoC4/BLE_HAL_PVT.c ****     }
 586:Generated_Source\PSoC4/BLE_HAL_PVT.c ****     
 587:Generated_Source\PSoC4/BLE_HAL_PVT.c **** #else     /* If feature is not required, return error. */
 588:Generated_Source\PSoC4/BLE_HAL_PVT.c ****     
 589:Generated_Source\PSoC4/BLE_HAL_PVT.c ****     CYBLE_API_RESULT_T CyBle_Hal_pairing_local_public_key_handler(void *param CYBLE_UNUSED_ATTR)
 590:Generated_Source\PSoC4/BLE_HAL_PVT.c ****     {
 1020              		.loc 1 590 0
 1021              		.cfi_startproc
 1022 0000 80B5     		push	{r7, lr}
 1023              		.cfi_def_cfa_offset 8
 1024              		.cfi_offset 7, -8
 1025              		.cfi_offset 14, -4
 1026 0002 82B0     		sub	sp, sp, #8
 1027              		.cfi_def_cfa_offset 16
 1028 0004 00AF     		add	r7, sp, #0
 1029              		.cfi_def_cfa_register 7
 1030 0006 7860     		str	r0, [r7, #4]
 591:Generated_Source\PSoC4/BLE_HAL_PVT.c ****         return (CYBLE_ERROR_UNSUPPORTED_FEATURE_OR_PARAMETER_VALUE);
 1031              		.loc 1 591 0
 1032 0008 2B23     		mov	r3, #43
 592:Generated_Source\PSoC4/BLE_HAL_PVT.c ****     }
 1033              		.loc 1 592 0
 1034 000a 181C     		mov	r0, r3
 1035 000c BD46     		mov	sp, r7
 1036 000e 02B0     		add	sp, sp, #8
 1037              		@ sp needed
 1038 0010 80BD     		pop	{r7, pc}
 1039              		.cfi_endproc
 1040              	.LFE16:
 1041              		.size	CyBle_Hal_pairing_local_public_key_handler, .-CyBle_Hal_pairing_local_public_key_handler
 1042 0012 C046     		.section	.text.CyBle_Hal_pairing_remote_key_handler,"ax",%progbits
 1043              		.align	2
 1044              		.global	CyBle_Hal_pairing_remote_key_handler
 1045              		.code	16
 1046              		.thumb_func
 1047              		.type	CyBle_Hal_pairing_remote_key_handler, %function
 1048              	CyBle_Hal_pairing_remote_key_handler:
 1049              	.LFB17:
 593:Generated_Source\PSoC4/BLE_HAL_PVT.c ****      
 594:Generated_Source\PSoC4/BLE_HAL_PVT.c ****     CYBLE_API_RESULT_T CyBle_Hal_pairing_remote_key_handler(void *param CYBLE_UNUSED_ATTR)
 595:Generated_Source\PSoC4/BLE_HAL_PVT.c ****     {
 1050              		.loc 1 595 0
ARM GAS  C:\Users\Samay\AppData\Local\Temp\cc68IsdU.s 			page 30


 1051              		.cfi_startproc
 1052 0000 80B5     		push	{r7, lr}
 1053              		.cfi_def_cfa_offset 8
 1054              		.cfi_offset 7, -8
 1055              		.cfi_offset 14, -4
 1056 0002 82B0     		sub	sp, sp, #8
 1057              		.cfi_def_cfa_offset 16
 1058 0004 00AF     		add	r7, sp, #0
 1059              		.cfi_def_cfa_register 7
 1060 0006 7860     		str	r0, [r7, #4]
 596:Generated_Source\PSoC4/BLE_HAL_PVT.c ****         return (CYBLE_ERROR_UNSUPPORTED_FEATURE_OR_PARAMETER_VALUE);
 1061              		.loc 1 596 0
 1062 0008 2B23     		mov	r3, #43
 597:Generated_Source\PSoC4/BLE_HAL_PVT.c ****     }
 1063              		.loc 1 597 0
 1064 000a 181C     		mov	r0, r3
 1065 000c BD46     		mov	sp, r7
 1066 000e 02B0     		add	sp, sp, #8
 1067              		@ sp needed
 1068 0010 80BD     		pop	{r7, pc}
 1069              		.cfi_endproc
 1070              	.LFE17:
 1071              		.size	CyBle_Hal_pairing_remote_key_handler, .-CyBle_Hal_pairing_remote_key_handler
 1072 0012 C046     		.section	.text.CyBle_Hal_pairing_dhkey_handler,"ax",%progbits
 1073              		.align	2
 1074              		.global	CyBle_Hal_pairing_dhkey_handler
 1075              		.code	16
 1076              		.thumb_func
 1077              		.type	CyBle_Hal_pairing_dhkey_handler, %function
 1078              	CyBle_Hal_pairing_dhkey_handler:
 1079              	.LFB18:
 598:Generated_Source\PSoC4/BLE_HAL_PVT.c ****      
 599:Generated_Source\PSoC4/BLE_HAL_PVT.c ****     CYBLE_API_RESULT_T CyBle_Hal_pairing_dhkey_handler(void *param CYBLE_UNUSED_ATTR)
 600:Generated_Source\PSoC4/BLE_HAL_PVT.c ****     {
 1080              		.loc 1 600 0
 1081              		.cfi_startproc
 1082 0000 80B5     		push	{r7, lr}
 1083              		.cfi_def_cfa_offset 8
 1084              		.cfi_offset 7, -8
 1085              		.cfi_offset 14, -4
 1086 0002 82B0     		sub	sp, sp, #8
 1087              		.cfi_def_cfa_offset 16
 1088 0004 00AF     		add	r7, sp, #0
 1089              		.cfi_def_cfa_register 7
 1090 0006 7860     		str	r0, [r7, #4]
 601:Generated_Source\PSoC4/BLE_HAL_PVT.c ****         return (CYBLE_ERROR_UNSUPPORTED_FEATURE_OR_PARAMETER_VALUE);
 1091              		.loc 1 601 0
 1092 0008 2B23     		mov	r3, #43
 602:Generated_Source\PSoC4/BLE_HAL_PVT.c ****     }
 1093              		.loc 1 602 0
 1094 000a 181C     		mov	r0, r3
 1095 000c BD46     		mov	sp, r7
 1096 000e 02B0     		add	sp, sp, #8
 1097              		@ sp needed
 1098 0010 80BD     		pop	{r7, pc}
 1099              		.cfi_endproc
 1100              	.LFE18:
ARM GAS  C:\Users\Samay\AppData\Local\Temp\cc68IsdU.s 			page 31


 1101              		.size	CyBle_Hal_pairing_dhkey_handler, .-CyBle_Hal_pairing_dhkey_handler
 1102 0012 C046     		.section	.text.CyBle_Hal_pairing_dhkey_check_handler,"ax",%progbits
 1103              		.align	2
 1104              		.global	CyBle_Hal_pairing_dhkey_check_handler
 1105              		.code	16
 1106              		.thumb_func
 1107              		.type	CyBle_Hal_pairing_dhkey_check_handler, %function
 1108              	CyBle_Hal_pairing_dhkey_check_handler:
 1109              	.LFB19:
 603:Generated_Source\PSoC4/BLE_HAL_PVT.c **** 
 604:Generated_Source\PSoC4/BLE_HAL_PVT.c ****     CYBLE_API_RESULT_T CyBle_Hal_pairing_dhkey_check_handler(void *param CYBLE_UNUSED_ATTR)
 605:Generated_Source\PSoC4/BLE_HAL_PVT.c ****     {
 1110              		.loc 1 605 0
 1111              		.cfi_startproc
 1112 0000 80B5     		push	{r7, lr}
 1113              		.cfi_def_cfa_offset 8
 1114              		.cfi_offset 7, -8
 1115              		.cfi_offset 14, -4
 1116 0002 82B0     		sub	sp, sp, #8
 1117              		.cfi_def_cfa_offset 16
 1118 0004 00AF     		add	r7, sp, #0
 1119              		.cfi_def_cfa_register 7
 1120 0006 7860     		str	r0, [r7, #4]
 606:Generated_Source\PSoC4/BLE_HAL_PVT.c ****         return (CYBLE_ERROR_UNSUPPORTED_FEATURE_OR_PARAMETER_VALUE);
 1121              		.loc 1 606 0
 1122 0008 2B23     		mov	r3, #43
 607:Generated_Source\PSoC4/BLE_HAL_PVT.c ****     }
 1123              		.loc 1 607 0
 1124 000a 181C     		mov	r0, r3
 1125 000c BD46     		mov	sp, r7
 1126 000e 02B0     		add	sp, sp, #8
 1127              		@ sp needed
 1128 0010 80BD     		pop	{r7, pc}
 1129              		.cfi_endproc
 1130              	.LFE19:
 1131              		.size	CyBle_Hal_pairing_dhkey_check_handler, .-CyBle_Hal_pairing_dhkey_check_handler
 1132 0012 C046     		.section	.text.CyBle_Hal_pairing_keypress_notification_handler,"ax",%progbits
 1133              		.align	2
 1134              		.global	CyBle_Hal_pairing_keypress_notification_handler
 1135              		.code	16
 1136              		.thumb_func
 1137              		.type	CyBle_Hal_pairing_keypress_notification_handler, %function
 1138              	CyBle_Hal_pairing_keypress_notification_handler:
 1139              	.LFB20:
 608:Generated_Source\PSoC4/BLE_HAL_PVT.c **** 
 609:Generated_Source\PSoC4/BLE_HAL_PVT.c ****     CYBLE_API_RESULT_T CyBle_Hal_pairing_keypress_notification_handler(void *param CYBLE_UNUSED_ATT
 610:Generated_Source\PSoC4/BLE_HAL_PVT.c ****     {
 1140              		.loc 1 610 0
 1141              		.cfi_startproc
 1142 0000 80B5     		push	{r7, lr}
 1143              		.cfi_def_cfa_offset 8
 1144              		.cfi_offset 7, -8
 1145              		.cfi_offset 14, -4
 1146 0002 82B0     		sub	sp, sp, #8
 1147              		.cfi_def_cfa_offset 16
 1148 0004 00AF     		add	r7, sp, #0
 1149              		.cfi_def_cfa_register 7
ARM GAS  C:\Users\Samay\AppData\Local\Temp\cc68IsdU.s 			page 32


 1150 0006 7860     		str	r0, [r7, #4]
 611:Generated_Source\PSoC4/BLE_HAL_PVT.c ****         return (CYBLE_ERROR_UNSUPPORTED_FEATURE_OR_PARAMETER_VALUE);
 1151              		.loc 1 611 0
 1152 0008 2B23     		mov	r3, #43
 612:Generated_Source\PSoC4/BLE_HAL_PVT.c ****     }
 1153              		.loc 1 612 0
 1154 000a 181C     		mov	r0, r3
 1155 000c BD46     		mov	sp, r7
 1156 000e 02B0     		add	sp, sp, #8
 1157              		@ sp needed
 1158 0010 80BD     		pop	{r7, pc}
 1159              		.cfi_endproc
 1160              	.LFE20:
 1161              		.size	CyBle_Hal_pairing_keypress_notification_handler, .-CyBle_Hal_pairing_keypress_notification_h
 1162 0012 C046     		.section	.text.CyBle_Hal_pairing_rand_handler,"ax",%progbits
 1163              		.align	2
 1164              		.global	CyBle_Hal_pairing_rand_handler
 1165              		.code	16
 1166              		.thumb_func
 1167              		.type	CyBle_Hal_pairing_rand_handler, %function
 1168              	CyBle_Hal_pairing_rand_handler:
 1169              	.LFB21:
 613:Generated_Source\PSoC4/BLE_HAL_PVT.c **** 
 614:Generated_Source\PSoC4/BLE_HAL_PVT.c ****     CYBLE_API_RESULT_T CyBle_Hal_pairing_rand_handler(void *param CYBLE_UNUSED_ATTR)
 615:Generated_Source\PSoC4/BLE_HAL_PVT.c ****     {
 1170              		.loc 1 615 0
 1171              		.cfi_startproc
 1172 0000 80B5     		push	{r7, lr}
 1173              		.cfi_def_cfa_offset 8
 1174              		.cfi_offset 7, -8
 1175              		.cfi_offset 14, -4
 1176 0002 82B0     		sub	sp, sp, #8
 1177              		.cfi_def_cfa_offset 16
 1178 0004 00AF     		add	r7, sp, #0
 1179              		.cfi_def_cfa_register 7
 1180 0006 7860     		str	r0, [r7, #4]
 616:Generated_Source\PSoC4/BLE_HAL_PVT.c ****         return (CYBLE_ERROR_UNSUPPORTED_FEATURE_OR_PARAMETER_VALUE);
 1181              		.loc 1 616 0
 1182 0008 2B23     		mov	r3, #43
 617:Generated_Source\PSoC4/BLE_HAL_PVT.c ****     }
 1183              		.loc 1 617 0
 1184 000a 181C     		mov	r0, r3
 1185 000c BD46     		mov	sp, r7
 1186 000e 02B0     		add	sp, sp, #8
 1187              		@ sp needed
 1188 0010 80BD     		pop	{r7, pc}
 1189              		.cfi_endproc
 1190              	.LFE21:
 1191              		.size	CyBle_Hal_pairing_rand_handler, .-CyBle_Hal_pairing_rand_handler
 1192 0012 C046     		.section	.text.CyBle_Hal_pairing_confirm_handler,"ax",%progbits
 1193              		.align	2
 1194              		.global	CyBle_Hal_pairing_confirm_handler
 1195              		.code	16
 1196              		.thumb_func
 1197              		.type	CyBle_Hal_pairing_confirm_handler, %function
 1198              	CyBle_Hal_pairing_confirm_handler:
 1199              	.LFB22:
ARM GAS  C:\Users\Samay\AppData\Local\Temp\cc68IsdU.s 			page 33


 618:Generated_Source\PSoC4/BLE_HAL_PVT.c ****     
 619:Generated_Source\PSoC4/BLE_HAL_PVT.c ****     CYBLE_API_RESULT_T CyBle_Hal_pairing_confirm_handler(void *param CYBLE_UNUSED_ATTR)
 620:Generated_Source\PSoC4/BLE_HAL_PVT.c ****     {
 1200              		.loc 1 620 0
 1201              		.cfi_startproc
 1202 0000 80B5     		push	{r7, lr}
 1203              		.cfi_def_cfa_offset 8
 1204              		.cfi_offset 7, -8
 1205              		.cfi_offset 14, -4
 1206 0002 82B0     		sub	sp, sp, #8
 1207              		.cfi_def_cfa_offset 16
 1208 0004 00AF     		add	r7, sp, #0
 1209              		.cfi_def_cfa_register 7
 1210 0006 7860     		str	r0, [r7, #4]
 621:Generated_Source\PSoC4/BLE_HAL_PVT.c ****         return (CYBLE_ERROR_UNSUPPORTED_FEATURE_OR_PARAMETER_VALUE);
 1211              		.loc 1 621 0
 1212 0008 2B23     		mov	r3, #43
 622:Generated_Source\PSoC4/BLE_HAL_PVT.c ****     }
 1213              		.loc 1 622 0
 1214 000a 181C     		mov	r0, r3
 1215 000c BD46     		mov	sp, r7
 1216 000e 02B0     		add	sp, sp, #8
 1217              		@ sp needed
 1218 0010 80BD     		pop	{r7, pc}
 1219              		.cfi_endproc
 1220              	.LFE22:
 1221              		.size	CyBle_Hal_pairing_confirm_handler, .-CyBle_Hal_pairing_confirm_handler
 1222 0012 C046     		.section	.text.CyBle_Hal_pairing_lr_confirming_handler,"ax",%progbits
 1223              		.align	2
 1224              		.global	CyBle_Hal_pairing_lr_confirming_handler
 1225              		.code	16
 1226              		.thumb_func
 1227              		.type	CyBle_Hal_pairing_lr_confirming_handler, %function
 1228              	CyBle_Hal_pairing_lr_confirming_handler:
 1229              	.LFB23:
 623:Generated_Source\PSoC4/BLE_HAL_PVT.c **** 
 624:Generated_Source\PSoC4/BLE_HAL_PVT.c ****     CYBLE_API_RESULT_T CyBle_Hal_pairing_lr_confirming_handler(void *param CYBLE_UNUSED_ATTR)
 625:Generated_Source\PSoC4/BLE_HAL_PVT.c ****     {
 1230              		.loc 1 625 0
 1231              		.cfi_startproc
 1232 0000 80B5     		push	{r7, lr}
 1233              		.cfi_def_cfa_offset 8
 1234              		.cfi_offset 7, -8
 1235              		.cfi_offset 14, -4
 1236 0002 82B0     		sub	sp, sp, #8
 1237              		.cfi_def_cfa_offset 16
 1238 0004 00AF     		add	r7, sp, #0
 1239              		.cfi_def_cfa_register 7
 1240 0006 7860     		str	r0, [r7, #4]
 626:Generated_Source\PSoC4/BLE_HAL_PVT.c ****         return (CYBLE_ERROR_UNSUPPORTED_FEATURE_OR_PARAMETER_VALUE);
 1241              		.loc 1 626 0
 1242 0008 2B23     		mov	r3, #43
 627:Generated_Source\PSoC4/BLE_HAL_PVT.c ****     }
 1243              		.loc 1 627 0
 1244 000a 181C     		mov	r0, r3
 1245 000c BD46     		mov	sp, r7
 1246 000e 02B0     		add	sp, sp, #8
ARM GAS  C:\Users\Samay\AppData\Local\Temp\cc68IsdU.s 			page 34


 1247              		@ sp needed
 1248 0010 80BD     		pop	{r7, pc}
 1249              		.cfi_endproc
 1250              	.LFE23:
 1251              		.size	CyBle_Hal_pairing_lr_confirming_handler, .-CyBle_Hal_pairing_lr_confirming_handler
 1252 0012 C046     		.section	.text.CyBle_Hal_pairing_sc_tbx_dhkey_generate_complete,"ax",%progbits
 1253              		.align	2
 1254              		.global	CyBle_Hal_pairing_sc_tbx_dhkey_generate_complete
 1255              		.code	16
 1256              		.thumb_func
 1257              		.type	CyBle_Hal_pairing_sc_tbx_dhkey_generate_complete, %function
 1258              	CyBle_Hal_pairing_sc_tbx_dhkey_generate_complete:
 1259              	.LFB24:
 628:Generated_Source\PSoC4/BLE_HAL_PVT.c ****     
 629:Generated_Source\PSoC4/BLE_HAL_PVT.c ****     CYBLE_API_RESULT_T CyBle_Hal_pairing_sc_tbx_dhkey_generate_complete(void* param CYBLE_UNUSED_AT
 630:Generated_Source\PSoC4/BLE_HAL_PVT.c ****     {
 1260              		.loc 1 630 0
 1261              		.cfi_startproc
 1262 0000 80B5     		push	{r7, lr}
 1263              		.cfi_def_cfa_offset 8
 1264              		.cfi_offset 7, -8
 1265              		.cfi_offset 14, -4
 1266 0002 82B0     		sub	sp, sp, #8
 1267              		.cfi_def_cfa_offset 16
 1268 0004 00AF     		add	r7, sp, #0
 1269              		.cfi_def_cfa_register 7
 1270 0006 7860     		str	r0, [r7, #4]
 631:Generated_Source\PSoC4/BLE_HAL_PVT.c ****         return (CYBLE_ERROR_UNSUPPORTED_FEATURE_OR_PARAMETER_VALUE);
 1271              		.loc 1 631 0
 1272 0008 2B23     		mov	r3, #43
 632:Generated_Source\PSoC4/BLE_HAL_PVT.c ****     }
 1273              		.loc 1 632 0
 1274 000a 181C     		mov	r0, r3
 1275 000c BD46     		mov	sp, r7
 1276 000e 02B0     		add	sp, sp, #8
 1277              		@ sp needed
 1278 0010 80BD     		pop	{r7, pc}
 1279              		.cfi_endproc
 1280              	.LFE24:
 1281              		.size	CyBle_Hal_pairing_sc_tbx_dhkey_generate_complete, .-CyBle_Hal_pairing_sc_tbx_dhkey_generate_
 1282 0012 C046     		.section	.text.CyBle_Hal_pairing_sc_tbx_local_pubkey_generate_complete,"ax",%progbits
 1283              		.align	2
 1284              		.global	CyBle_Hal_pairing_sc_tbx_local_pubkey_generate_complete
 1285              		.code	16
 1286              		.thumb_func
 1287              		.type	CyBle_Hal_pairing_sc_tbx_local_pubkey_generate_complete, %function
 1288              	CyBle_Hal_pairing_sc_tbx_local_pubkey_generate_complete:
 1289              	.LFB25:
 633:Generated_Source\PSoC4/BLE_HAL_PVT.c **** 
 634:Generated_Source\PSoC4/BLE_HAL_PVT.c ****     CYBLE_API_RESULT_T CyBle_Hal_pairing_sc_tbx_local_pubkey_generate_complete(void)
 635:Generated_Source\PSoC4/BLE_HAL_PVT.c ****     {
 1290              		.loc 1 635 0
 1291              		.cfi_startproc
 1292 0000 80B5     		push	{r7, lr}
 1293              		.cfi_def_cfa_offset 8
 1294              		.cfi_offset 7, -8
 1295              		.cfi_offset 14, -4
ARM GAS  C:\Users\Samay\AppData\Local\Temp\cc68IsdU.s 			page 35


 1296 0002 00AF     		add	r7, sp, #0
 1297              		.cfi_def_cfa_register 7
 636:Generated_Source\PSoC4/BLE_HAL_PVT.c ****         return (CYBLE_ERROR_UNSUPPORTED_FEATURE_OR_PARAMETER_VALUE);
 1298              		.loc 1 636 0
 1299 0004 2B23     		mov	r3, #43
 637:Generated_Source\PSoC4/BLE_HAL_PVT.c ****     }
 1300              		.loc 1 637 0
 1301 0006 181C     		mov	r0, r3
 1302 0008 BD46     		mov	sp, r7
 1303              		@ sp needed
 1304 000a 80BD     		pop	{r7, pc}
 1305              		.cfi_endproc
 1306              	.LFE25:
 1307              		.size	CyBle_Hal_pairing_sc_tbx_local_pubkey_generate_complete, .-CyBle_Hal_pairing_sc_tbx_local_pu
 1308              		.section	.text.CyBle_Hal_pairing_sc_tbx_generate_local_P256_public_key,"ax",%progbits
 1309              		.align	2
 1310              		.global	CyBle_Hal_pairing_sc_tbx_generate_local_P256_public_key
 1311              		.code	16
 1312              		.thumb_func
 1313              		.type	CyBle_Hal_pairing_sc_tbx_generate_local_P256_public_key, %function
 1314              	CyBle_Hal_pairing_sc_tbx_generate_local_P256_public_key:
 1315              	.LFB26:
 638:Generated_Source\PSoC4/BLE_HAL_PVT.c **** 
 639:Generated_Source\PSoC4/BLE_HAL_PVT.c ****     CYBLE_API_RESULT_T CyBle_Hal_pairing_sc_tbx_generate_local_P256_public_key(uint8 param CYBLE_UN
 640:Generated_Source\PSoC4/BLE_HAL_PVT.c ****     {
 1316              		.loc 1 640 0
 1317              		.cfi_startproc
 1318 0000 80B5     		push	{r7, lr}
 1319              		.cfi_def_cfa_offset 8
 1320              		.cfi_offset 7, -8
 1321              		.cfi_offset 14, -4
 1322 0002 82B0     		sub	sp, sp, #8
 1323              		.cfi_def_cfa_offset 16
 1324 0004 00AF     		add	r7, sp, #0
 1325              		.cfi_def_cfa_register 7
 1326 0006 021C     		mov	r2, r0
 1327 0008 FB1D     		add	r3, r7, #7
 1328 000a 1A70     		strb	r2, [r3]
 641:Generated_Source\PSoC4/BLE_HAL_PVT.c ****         return (CYBLE_ERROR_UNSUPPORTED_FEATURE_OR_PARAMETER_VALUE);
 1329              		.loc 1 641 0
 1330 000c 2B23     		mov	r3, #43
 642:Generated_Source\PSoC4/BLE_HAL_PVT.c ****     }
 1331              		.loc 1 642 0
 1332 000e 181C     		mov	r0, r3
 1333 0010 BD46     		mov	sp, r7
 1334 0012 02B0     		add	sp, sp, #8
 1335              		@ sp needed
 1336 0014 80BD     		pop	{r7, pc}
 1337              		.cfi_endproc
 1338              	.LFE26:
 1339              		.size	CyBle_Hal_pairing_sc_tbx_generate_local_P256_public_key, .-CyBle_Hal_pairing_sc_tbx_generate
 1340 0016 C046     		.section	.text.CyBle_Hal_pairing_sc_tbx_generate_DHkey,"ax",%progbits
 1341              		.align	2
 1342              		.global	CyBle_Hal_pairing_sc_tbx_generate_DHkey
 1343              		.code	16
 1344              		.thumb_func
 1345              		.type	CyBle_Hal_pairing_sc_tbx_generate_DHkey, %function
ARM GAS  C:\Users\Samay\AppData\Local\Temp\cc68IsdU.s 			page 36


 1346              	CyBle_Hal_pairing_sc_tbx_generate_DHkey:
 1347              	.LFB27:
 643:Generated_Source\PSoC4/BLE_HAL_PVT.c **** 
 644:Generated_Source\PSoC4/BLE_HAL_PVT.c ****     CYBLE_API_RESULT_T CyBle_Hal_pairing_sc_tbx_generate_DHkey(void  * param1 CYBLE_UNUSED_ATTR,
 645:Generated_Source\PSoC4/BLE_HAL_PVT.c ****                                                                void  * param2 CYBLE_UNUSED_ATTR)
 646:Generated_Source\PSoC4/BLE_HAL_PVT.c ****     {
 1348              		.loc 1 646 0
 1349              		.cfi_startproc
 1350 0000 80B5     		push	{r7, lr}
 1351              		.cfi_def_cfa_offset 8
 1352              		.cfi_offset 7, -8
 1353              		.cfi_offset 14, -4
 1354 0002 82B0     		sub	sp, sp, #8
 1355              		.cfi_def_cfa_offset 16
 1356 0004 00AF     		add	r7, sp, #0
 1357              		.cfi_def_cfa_register 7
 1358 0006 7860     		str	r0, [r7, #4]
 1359 0008 3960     		str	r1, [r7]
 647:Generated_Source\PSoC4/BLE_HAL_PVT.c ****         return (CYBLE_ERROR_UNSUPPORTED_FEATURE_OR_PARAMETER_VALUE);
 1360              		.loc 1 647 0
 1361 000a 2B23     		mov	r3, #43
 648:Generated_Source\PSoC4/BLE_HAL_PVT.c ****     }
 1362              		.loc 1 648 0
 1363 000c 181C     		mov	r0, r3
 1364 000e BD46     		mov	sp, r7
 1365 0010 02B0     		add	sp, sp, #8
 1366              		@ sp needed
 1367 0012 80BD     		pop	{r7, pc}
 1368              		.cfi_endproc
 1369              	.LFE27:
 1370              		.size	CyBle_Hal_pairing_sc_tbx_generate_DHkey, .-CyBle_Hal_pairing_sc_tbx_generate_DHkey
 1371              		.section	.text.CyBle_Hal_smp_sc_cmac_complete,"ax",%progbits
 1372              		.align	2
 1373              		.global	CyBle_Hal_smp_sc_cmac_complete
 1374              		.code	16
 1375              		.thumb_func
 1376              		.type	CyBle_Hal_smp_sc_cmac_complete, %function
 1377              	CyBle_Hal_smp_sc_cmac_complete:
 1378              	.LFB28:
 649:Generated_Source\PSoC4/BLE_HAL_PVT.c **** 
 650:Generated_Source\PSoC4/BLE_HAL_PVT.c ****     void CyBle_Hal_smp_sc_cmac_complete(void)
 651:Generated_Source\PSoC4/BLE_HAL_PVT.c ****     {
 1379              		.loc 1 651 0
 1380              		.cfi_startproc
 1381 0000 80B5     		push	{r7, lr}
 1382              		.cfi_def_cfa_offset 8
 1383              		.cfi_offset 7, -8
 1384              		.cfi_offset 14, -4
 1385 0002 00AF     		add	r7, sp, #0
 1386              		.cfi_def_cfa_register 7
 652:Generated_Source\PSoC4/BLE_HAL_PVT.c ****     }
 1387              		.loc 1 652 0
 1388 0004 BD46     		mov	sp, r7
 1389              		@ sp needed
 1390 0006 80BD     		pop	{r7, pc}
 1391              		.cfi_endproc
 1392              	.LFE28:
ARM GAS  C:\Users\Samay\AppData\Local\Temp\cc68IsdU.s 			page 37


 1393              		.size	CyBle_Hal_smp_sc_cmac_complete, .-CyBle_Hal_smp_sc_cmac_complete
 1394              		.section	.text.CyBle_Hal_se_smp_sc_user_passkey_handler,"ax",%progbits
 1395              		.align	2
 1396              		.global	CyBle_Hal_se_smp_sc_user_passkey_handler
 1397              		.code	16
 1398              		.thumb_func
 1399              		.type	CyBle_Hal_se_smp_sc_user_passkey_handler, %function
 1400              	CyBle_Hal_se_smp_sc_user_passkey_handler:
 1401              	.LFB29:
 653:Generated_Source\PSoC4/BLE_HAL_PVT.c **** 
 654:Generated_Source\PSoC4/BLE_HAL_PVT.c ****     CYBLE_API_RESULT_T CyBle_Hal_se_smp_sc_user_passkey_handler(void  * param1 CYBLE_UNUSED_ATTR,
 655:Generated_Source\PSoC4/BLE_HAL_PVT.c ****                                                                 void  * param2 CYBLE_UNUSED_ATTR)
 656:Generated_Source\PSoC4/BLE_HAL_PVT.c ****     {
 1402              		.loc 1 656 0
 1403              		.cfi_startproc
 1404 0000 80B5     		push	{r7, lr}
 1405              		.cfi_def_cfa_offset 8
 1406              		.cfi_offset 7, -8
 1407              		.cfi_offset 14, -4
 1408 0002 82B0     		sub	sp, sp, #8
 1409              		.cfi_def_cfa_offset 16
 1410 0004 00AF     		add	r7, sp, #0
 1411              		.cfi_def_cfa_register 7
 1412 0006 7860     		str	r0, [r7, #4]
 1413 0008 3960     		str	r1, [r7]
 657:Generated_Source\PSoC4/BLE_HAL_PVT.c ****         return (CYBLE_ERROR_UNSUPPORTED_FEATURE_OR_PARAMETER_VALUE);
 1414              		.loc 1 657 0
 1415 000a 2B23     		mov	r3, #43
 658:Generated_Source\PSoC4/BLE_HAL_PVT.c ****     }
 1416              		.loc 1 658 0
 1417 000c 181C     		mov	r0, r3
 1418 000e BD46     		mov	sp, r7
 1419 0010 02B0     		add	sp, sp, #8
 1420              		@ sp needed
 1421 0012 80BD     		pop	{r7, pc}
 1422              		.cfi_endproc
 1423              	.LFE29:
 1424              		.size	CyBle_Hal_se_smp_sc_user_passkey_handler, .-CyBle_Hal_se_smp_sc_user_passkey_handler
 1425              		.section	.text.CyBle_Hal_EccPointMult,"ax",%progbits
 1426              		.align	2
 1427              		.global	CyBle_Hal_EccPointMult
 1428              		.code	16
 1429              		.thumb_func
 1430              		.type	CyBle_Hal_EccPointMult, %function
 1431              	CyBle_Hal_EccPointMult:
 1432              	.LFB30:
 659:Generated_Source\PSoC4/BLE_HAL_PVT.c **** 
 660:Generated_Source\PSoC4/BLE_HAL_PVT.c ****     void CyBle_Hal_EccPointMult(void)
 661:Generated_Source\PSoC4/BLE_HAL_PVT.c ****     {
 1433              		.loc 1 661 0
 1434              		.cfi_startproc
 1435 0000 80B5     		push	{r7, lr}
 1436              		.cfi_def_cfa_offset 8
 1437              		.cfi_offset 7, -8
 1438              		.cfi_offset 14, -4
 1439 0002 00AF     		add	r7, sp, #0
 1440              		.cfi_def_cfa_register 7
ARM GAS  C:\Users\Samay\AppData\Local\Temp\cc68IsdU.s 			page 38


 662:Generated_Source\PSoC4/BLE_HAL_PVT.c ****     }
 1441              		.loc 1 662 0
 1442 0004 BD46     		mov	sp, r7
 1443              		@ sp needed
 1444 0006 80BD     		pop	{r7, pc}
 1445              		.cfi_endproc
 1446              	.LFE30:
 1447              		.size	CyBle_Hal_EccPointMult, .-CyBle_Hal_EccPointMult
 1448              		.section	.text.BLE_CMP_FTR_API_lec_hci_handle_read_local_P256_public_key_command,"ax",%progbits
 1449              		.align	2
 1450              		.global	BLE_CMP_FTR_API_lec_hci_handle_read_local_P256_public_key_command
 1451              		.code	16
 1452              		.thumb_func
 1453              		.type	BLE_CMP_FTR_API_lec_hci_handle_read_local_P256_public_key_command, %function
 1454              	BLE_CMP_FTR_API_lec_hci_handle_read_local_P256_public_key_command:
 1455              	.LFB31:
 663:Generated_Source\PSoC4/BLE_HAL_PVT.c ****     
 664:Generated_Source\PSoC4/BLE_HAL_PVT.c **** #endif /* (CYBLE_SECURE_CONN_FEATURE_ENABLED) */
 665:Generated_Source\PSoC4/BLE_HAL_PVT.c **** 
 666:Generated_Source\PSoC4/BLE_HAL_PVT.c **** #endif /* CYBLE_MODE_PROFILE */
 667:Generated_Source\PSoC4/BLE_HAL_PVT.c **** 
 668:Generated_Source\PSoC4/BLE_HAL_PVT.c **** #if(CYBLE_SECURE_CONN_FEATURE_ENABLED)
 669:Generated_Source\PSoC4/BLE_HAL_PVT.c ****     
 670:Generated_Source\PSoC4/BLE_HAL_PVT.c ****     uint16 BLE_CMP_FTR_API_lec_hci_handle_read_local_P256_public_key_command(void *param)
 671:Generated_Source\PSoC4/BLE_HAL_PVT.c ****     {
 672:Generated_Source\PSoC4/BLE_HAL_PVT.c ****         return (BLE_STK_FTR_API_lec_hci_handle_read_local_P256_public_key_command(param));
 673:Generated_Source\PSoC4/BLE_HAL_PVT.c ****     }
 674:Generated_Source\PSoC4/BLE_HAL_PVT.c ****     
 675:Generated_Source\PSoC4/BLE_HAL_PVT.c ****     uint16 BLE_CMP_FTR_API_lec_hci_handle_generate_DHkey_command(void *param)
 676:Generated_Source\PSoC4/BLE_HAL_PVT.c ****     {
 677:Generated_Source\PSoC4/BLE_HAL_PVT.c ****         return (BLE_STK_FTR_API_lec_hci_handle_generate_DHkey_command(param));
 678:Generated_Source\PSoC4/BLE_HAL_PVT.c ****     }
 679:Generated_Source\PSoC4/BLE_HAL_PVT.c **** 
 680:Generated_Source\PSoC4/BLE_HAL_PVT.c **** #else     /* If feature is not required, return error. */
 681:Generated_Source\PSoC4/BLE_HAL_PVT.c ****     
 682:Generated_Source\PSoC4/BLE_HAL_PVT.c ****     uint16 BLE_CMP_FTR_API_lec_hci_handle_read_local_P256_public_key_command(void *param CYBLE_UNUS
 683:Generated_Source\PSoC4/BLE_HAL_PVT.c ****     {
 1456              		.loc 1 683 0
 1457              		.cfi_startproc
 1458 0000 80B5     		push	{r7, lr}
 1459              		.cfi_def_cfa_offset 8
 1460              		.cfi_offset 7, -8
 1461              		.cfi_offset 14, -4
 1462 0002 82B0     		sub	sp, sp, #8
 1463              		.cfi_def_cfa_offset 16
 1464 0004 00AF     		add	r7, sp, #0
 1465              		.cfi_def_cfa_register 7
 1466 0006 7860     		str	r0, [r7, #4]
 684:Generated_Source\PSoC4/BLE_HAL_PVT.c ****         return (CYBLE_UNKNOWN_HCI_COMMAND_ERROR);
 1467              		.loc 1 684 0
 1468 0008 0123     		mov	r3, #1
 685:Generated_Source\PSoC4/BLE_HAL_PVT.c ****     }
 1469              		.loc 1 685 0
 1470 000a 181C     		mov	r0, r3
 1471 000c BD46     		mov	sp, r7
 1472 000e 02B0     		add	sp, sp, #8
 1473              		@ sp needed
ARM GAS  C:\Users\Samay\AppData\Local\Temp\cc68IsdU.s 			page 39


 1474 0010 80BD     		pop	{r7, pc}
 1475              		.cfi_endproc
 1476              	.LFE31:
 1477              		.size	BLE_CMP_FTR_API_lec_hci_handle_read_local_P256_public_key_command, .-BLE_CMP_FTR_API_lec_hci
 1478 0012 C046     		.section	.text.BLE_CMP_FTR_API_lec_hci_handle_generate_DHkey_command,"ax",%progbits
 1479              		.align	2
 1480              		.global	BLE_CMP_FTR_API_lec_hci_handle_generate_DHkey_command
 1481              		.code	16
 1482              		.thumb_func
 1483              		.type	BLE_CMP_FTR_API_lec_hci_handle_generate_DHkey_command, %function
 1484              	BLE_CMP_FTR_API_lec_hci_handle_generate_DHkey_command:
 1485              	.LFB32:
 686:Generated_Source\PSoC4/BLE_HAL_PVT.c ****     
 687:Generated_Source\PSoC4/BLE_HAL_PVT.c ****     uint16 BLE_CMP_FTR_API_lec_hci_handle_generate_DHkey_command(void *param CYBLE_UNUSED_ATTR)
 688:Generated_Source\PSoC4/BLE_HAL_PVT.c ****     {
 1486              		.loc 1 688 0
 1487              		.cfi_startproc
 1488 0000 80B5     		push	{r7, lr}
 1489              		.cfi_def_cfa_offset 8
 1490              		.cfi_offset 7, -8
 1491              		.cfi_offset 14, -4
 1492 0002 82B0     		sub	sp, sp, #8
 1493              		.cfi_def_cfa_offset 16
 1494 0004 00AF     		add	r7, sp, #0
 1495              		.cfi_def_cfa_register 7
 1496 0006 7860     		str	r0, [r7, #4]
 689:Generated_Source\PSoC4/BLE_HAL_PVT.c ****         return (CYBLE_UNKNOWN_HCI_COMMAND_ERROR);
 1497              		.loc 1 689 0
 1498 0008 0123     		mov	r3, #1
 690:Generated_Source\PSoC4/BLE_HAL_PVT.c ****     }
 1499              		.loc 1 690 0
 1500 000a 181C     		mov	r0, r3
 1501 000c BD46     		mov	sp, r7
 1502 000e 02B0     		add	sp, sp, #8
 1503              		@ sp needed
 1504 0010 80BD     		pop	{r7, pc}
 1505              		.cfi_endproc
 1506              	.LFE32:
 1507              		.size	BLE_CMP_FTR_API_lec_hci_handle_generate_DHkey_command, .-BLE_CMP_FTR_API_lec_hci_handle_gene
 1508 0012 C046     		.text
 1509              	.Letext0:
 1510              		.file 2 "Generated_Source\\PSoC4\\cytypes.h"
 1511              		.file 3 "Generated_Source\\PSoC4\\BLE_Stack.h"